
ExtruderControl.elf:     file format elf32-avr

Sections:
Idx Name          Size      VMA       LMA       File off  Algn
  0 .text         00001c82  00000000  00000000  00000094  2**1
                  CONTENTS, ALLOC, LOAD, READONLY, CODE
  1 .data         00000010  00800060  00001c82  00001d16  2**0
                  CONTENTS, ALLOC, LOAD, DATA
  2 .bss          0000006b  00800070  00800070  00001d26  2**0
                  ALLOC
  3 .comment      0000005c  00000000  00000000  00001d26  2**0
                  CONTENTS, READONLY
  4 .note.gnu.avr.deviceinfo 0000003c  00000000  00000000  00001d84  2**2
                  CONTENTS, READONLY
  5 .debug_aranges 00000160  00000000  00000000  00001dc0  2**0
                  CONTENTS, READONLY, DEBUGGING
  6 .debug_info   00001fd0  00000000  00000000  00001f20  2**0
                  CONTENTS, READONLY, DEBUGGING
  7 .debug_abbrev 0000049e  00000000  00000000  00003ef0  2**0
                  CONTENTS, READONLY, DEBUGGING
  8 .debug_line   000011bf  00000000  00000000  0000438e  2**0
                  CONTENTS, READONLY, DEBUGGING
  9 .debug_frame  0000035c  00000000  00000000  00005550  2**2
                  CONTENTS, READONLY, DEBUGGING
 10 .debug_str    000003fa  00000000  00000000  000058ac  2**0
                  CONTENTS, READONLY, DEBUGGING
 11 .debug_loc    00000d62  00000000  00000000  00005ca6  2**0
                  CONTENTS, READONLY, DEBUGGING
 12 .debug_ranges 00000140  00000000  00000000  00006a08  2**0
                  CONTENTS, READONLY, DEBUGGING

Disassembly of section .text:

00000000 <__vectors>:
       0:	0c 94 ab 00 	jmp	0x156	; 0x156 <__ctors_end>
       4:	0c 94 c6 03 	jmp	0x78c	; 0x78c <__vector_1>
       8:	0c 94 d5 03 	jmp	0x7aa	; 0x7aa <__vector_2>
       c:	0c 94 c8 00 	jmp	0x190	; 0x190 <__bad_interrupt>
      10:	0c 94 c8 00 	jmp	0x190	; 0x190 <__bad_interrupt>
      14:	0c 94 c8 00 	jmp	0x190	; 0x190 <__bad_interrupt>
      18:	0c 94 c8 00 	jmp	0x190	; 0x190 <__bad_interrupt>
      1c:	0c 94 c8 00 	jmp	0x190	; 0x190 <__bad_interrupt>
      20:	0c 94 c8 00 	jmp	0x190	; 0x190 <__bad_interrupt>
      24:	0c 94 c8 00 	jmp	0x190	; 0x190 <__bad_interrupt>
      28:	0c 94 c8 00 	jmp	0x190	; 0x190 <__bad_interrupt>
      2c:	0c 94 c8 00 	jmp	0x190	; 0x190 <__bad_interrupt>
      30:	0c 94 c8 00 	jmp	0x190	; 0x190 <__bad_interrupt>
      34:	0c 94 c8 00 	jmp	0x190	; 0x190 <__bad_interrupt>
      38:	0c 94 c8 00 	jmp	0x190	; 0x190 <__bad_interrupt>
      3c:	0c 94 c8 00 	jmp	0x190	; 0x190 <__bad_interrupt>
      40:	0c 94 c8 00 	jmp	0x190	; 0x190 <__bad_interrupt>
      44:	0c 94 c8 00 	jmp	0x190	; 0x190 <__bad_interrupt>
      48:	0c 94 c8 00 	jmp	0x190	; 0x190 <__bad_interrupt>
      4c:	0c 94 c8 00 	jmp	0x190	; 0x190 <__bad_interrupt>
      50:	0c 94 c8 00 	jmp	0x190	; 0x190 <__bad_interrupt>

00000054 <__trampolines_end>:
      54:	6e 61       	ori	r22, 0x1E	; 30
      56:	6e 00       	.word	0x006e	; ????

00000058 <__c.2240>:
      58:	69 6e 66 00 00 40 7a 10 f3 5a 00 a0 72 4e 18 09     inf..@z..Z..rN..
      68:	00 10 a5 d4 e8 00 00 e8 76 48 17 00 00 e4 0b 54     ........vH.....T
      78:	02 00 00 ca 9a 3b 00 00 00 e1 f5 05 00 00 80 96     .....;..........
      88:	98 00 00 00 40 42 0f 00 00 00 a0 86 01 00 00 00     ....@B..........
      98:	10 27 00 00 00 00 e8 03 00 00 00 00 64 00 00 00     .'..........d...
      a8:	00 00 0a 00 00 00 00 00 01 00 00 00 00 00 2c 76     ..............,v
      b8:	d8 88 dc 67 4f 08 23 df c1 df ae 59 e1 b1 b7 96     ...gO.#....Y....
      c8:	e5 e3 e4 53 c6 3a e6 51 99 76 96 e8 e6 c2 84 26     ...S.:.Q.v.....&
      d8:	eb 89 8c 9b 62 ed 40 7c 6f fc ef bc 9c 9f 40 f2     ....b.@|o.....@.
      e8:	ba a5 6f a5 f4 90 05 5a 2a f7 5c 93 6b 6c f9 67     ..o....Z*.\.kl.g
      f8:	6d c1 1b fc e0 e4 0d 47 fe f5 20 e6 b5 00 d0 ed     m......G.. .....
     108:	90 2e 03 00 94 35 77 05 00 80 84 1e 08 00 00 20     .....5w........ 
     118:	4e 0a 00 00 00 c8 0c 33 33 33 33 0f 98 6e 12 83     N......3333..n..
     128:	11 41 ef 8d 21 14 89 3b e6 55 16 cf fe e6 db 18     .A..!..;.U......
     138:	d1 84 4b 38 1b f7 7c 1d 90 1d a4 bb e4 24 20 32     ..K8..|......$ 2
     148:	84 72 5e 22 81 00 c9 f1 24 ec a1 e5 3d 27           .r^"....$...='

00000156 <__ctors_end>:
     156:	11 24       	eor	r1, r1
     158:	1f be       	out	0x3f, r1	; 63
     15a:	cf e5       	ldi	r28, 0x5F	; 95
     15c:	d4 e0       	ldi	r29, 0x04	; 4
     15e:	de bf       	out	0x3e, r29	; 62
     160:	cd bf       	out	0x3d, r28	; 61

00000162 <__do_copy_data>:
     162:	10 e0       	ldi	r17, 0x00	; 0
     164:	a0 e6       	ldi	r26, 0x60	; 96
     166:	b0 e0       	ldi	r27, 0x00	; 0
     168:	e2 e8       	ldi	r30, 0x82	; 130
     16a:	fc e1       	ldi	r31, 0x1C	; 28
     16c:	02 c0       	rjmp	.+4      	; 0x172 <__do_copy_data+0x10>
     16e:	05 90       	lpm	r0, Z+
     170:	0d 92       	st	X+, r0
     172:	a0 37       	cpi	r26, 0x70	; 112
     174:	b1 07       	cpc	r27, r17
     176:	d9 f7       	brne	.-10     	; 0x16e <__do_copy_data+0xc>

00000178 <__do_clear_bss>:
     178:	20 e0       	ldi	r18, 0x00	; 0
     17a:	a0 e7       	ldi	r26, 0x70	; 112
     17c:	b0 e0       	ldi	r27, 0x00	; 0
     17e:	01 c0       	rjmp	.+2      	; 0x182 <.do_clear_bss_start>

00000180 <.do_clear_bss_loop>:
     180:	1d 92       	st	X+, r1

00000182 <.do_clear_bss_start>:
     182:	ab 3d       	cpi	r26, 0xDB	; 219
     184:	b2 07       	cpc	r27, r18
     186:	e1 f7       	brne	.-8      	; 0x180 <.do_clear_bss_loop>
     188:	0e 94 5b 03 	call	0x6b6	; 0x6b6 <main>
     18c:	0c 94 3f 0e 	jmp	0x1c7e	; 0x1c7e <_exit>

00000190 <__bad_interrupt>:
     190:	0c 94 00 00 	jmp	0	; 0x0 <__vectors>

00000194 <pinChange>:
}

void Lcd4_Shift_Left()
{
	Lcd4_Cmd(0x01);
	Lcd4_Cmd(0x08);
     194:	67 2b       	or	r22, r23
     196:	09 f0       	breq	.+2      	; 0x19a <pinChange+0x6>
     198:	9f c0       	rjmp	.+318    	; 0x2d8 <pinChange+0x144>
     19a:	00 97       	sbiw	r24, 0x00	; 0
     19c:	11 f4       	brne	.+4      	; 0x1a2 <pinChange+0xe>
     19e:	d8 98       	cbi	0x1b, 0	; 27
     1a0:	08 95       	ret
     1a2:	81 30       	cpi	r24, 0x01	; 1
     1a4:	91 05       	cpc	r25, r1
     1a6:	11 f4       	brne	.+4      	; 0x1ac <pinChange+0x18>
     1a8:	d9 98       	cbi	0x1b, 1	; 27
     1aa:	08 95       	ret
     1ac:	82 30       	cpi	r24, 0x02	; 2
     1ae:	91 05       	cpc	r25, r1
     1b0:	11 f4       	brne	.+4      	; 0x1b6 <pinChange+0x22>
     1b2:	da 98       	cbi	0x1b, 2	; 27
     1b4:	08 95       	ret
     1b6:	83 30       	cpi	r24, 0x03	; 3
     1b8:	91 05       	cpc	r25, r1
     1ba:	11 f4       	brne	.+4      	; 0x1c0 <pinChange+0x2c>
     1bc:	db 98       	cbi	0x1b, 3	; 27
     1be:	08 95       	ret
     1c0:	84 30       	cpi	r24, 0x04	; 4
     1c2:	91 05       	cpc	r25, r1
     1c4:	11 f4       	brne	.+4      	; 0x1ca <pinChange+0x36>
     1c6:	dc 98       	cbi	0x1b, 4	; 27
     1c8:	08 95       	ret
     1ca:	85 30       	cpi	r24, 0x05	; 5
     1cc:	91 05       	cpc	r25, r1
     1ce:	11 f4       	brne	.+4      	; 0x1d4 <pinChange+0x40>
     1d0:	dd 98       	cbi	0x1b, 5	; 27
     1d2:	08 95       	ret
     1d4:	86 30       	cpi	r24, 0x06	; 6
     1d6:	91 05       	cpc	r25, r1
     1d8:	11 f4       	brne	.+4      	; 0x1de <pinChange+0x4a>
     1da:	de 98       	cbi	0x1b, 6	; 27
     1dc:	08 95       	ret
     1de:	87 30       	cpi	r24, 0x07	; 7
     1e0:	91 05       	cpc	r25, r1
     1e2:	11 f4       	brne	.+4      	; 0x1e8 <pinChange+0x54>
     1e4:	df 98       	cbi	0x1b, 7	; 27
     1e6:	08 95       	ret
     1e8:	8a 30       	cpi	r24, 0x0A	; 10
     1ea:	91 05       	cpc	r25, r1
     1ec:	11 f4       	brne	.+4      	; 0x1f2 <pinChange+0x5e>
     1ee:	c0 98       	cbi	0x18, 0	; 24
     1f0:	08 95       	ret
     1f2:	8b 30       	cpi	r24, 0x0B	; 11
     1f4:	91 05       	cpc	r25, r1
     1f6:	11 f4       	brne	.+4      	; 0x1fc <pinChange+0x68>
     1f8:	c1 98       	cbi	0x18, 1	; 24
     1fa:	08 95       	ret
     1fc:	8c 30       	cpi	r24, 0x0C	; 12
     1fe:	91 05       	cpc	r25, r1
     200:	11 f4       	brne	.+4      	; 0x206 <pinChange+0x72>
     202:	c2 98       	cbi	0x18, 2	; 24
     204:	08 95       	ret
     206:	8d 30       	cpi	r24, 0x0D	; 13
     208:	91 05       	cpc	r25, r1
     20a:	11 f4       	brne	.+4      	; 0x210 <pinChange+0x7c>
     20c:	c3 98       	cbi	0x18, 3	; 24
     20e:	08 95       	ret
     210:	8e 30       	cpi	r24, 0x0E	; 14
     212:	91 05       	cpc	r25, r1
     214:	11 f4       	brne	.+4      	; 0x21a <pinChange+0x86>
     216:	c4 98       	cbi	0x18, 4	; 24
     218:	08 95       	ret
     21a:	8f 30       	cpi	r24, 0x0F	; 15
     21c:	91 05       	cpc	r25, r1
     21e:	11 f4       	brne	.+4      	; 0x224 <pinChange+0x90>
     220:	c5 98       	cbi	0x18, 5	; 24
     222:	08 95       	ret
     224:	80 31       	cpi	r24, 0x10	; 16
     226:	91 05       	cpc	r25, r1
     228:	11 f4       	brne	.+4      	; 0x22e <pinChange+0x9a>
     22a:	c6 98       	cbi	0x18, 6	; 24
     22c:	08 95       	ret
     22e:	81 31       	cpi	r24, 0x11	; 17
     230:	91 05       	cpc	r25, r1
     232:	11 f4       	brne	.+4      	; 0x238 <pinChange+0xa4>
     234:	c7 98       	cbi	0x18, 7	; 24
     236:	08 95       	ret
     238:	84 31       	cpi	r24, 0x14	; 20
     23a:	91 05       	cpc	r25, r1
     23c:	11 f4       	brne	.+4      	; 0x242 <pinChange+0xae>
     23e:	a8 98       	cbi	0x15, 0	; 21
     240:	08 95       	ret
     242:	85 31       	cpi	r24, 0x15	; 21
     244:	91 05       	cpc	r25, r1
     246:	11 f4       	brne	.+4      	; 0x24c <pinChange+0xb8>
     248:	a9 98       	cbi	0x15, 1	; 21
     24a:	08 95       	ret
     24c:	86 31       	cpi	r24, 0x16	; 22
     24e:	91 05       	cpc	r25, r1
     250:	11 f4       	brne	.+4      	; 0x256 <pinChange+0xc2>
     252:	aa 98       	cbi	0x15, 2	; 21
     254:	08 95       	ret
     256:	87 31       	cpi	r24, 0x17	; 23
     258:	91 05       	cpc	r25, r1
     25a:	11 f4       	brne	.+4      	; 0x260 <pinChange+0xcc>
     25c:	ab 98       	cbi	0x15, 3	; 21
     25e:	08 95       	ret
     260:	88 31       	cpi	r24, 0x18	; 24
     262:	91 05       	cpc	r25, r1
     264:	11 f4       	brne	.+4      	; 0x26a <pinChange+0xd6>
     266:	ac 98       	cbi	0x15, 4	; 21
     268:	08 95       	ret
     26a:	89 31       	cpi	r24, 0x19	; 25
     26c:	91 05       	cpc	r25, r1
     26e:	11 f4       	brne	.+4      	; 0x274 <pinChange+0xe0>
     270:	ad 98       	cbi	0x15, 5	; 21
     272:	08 95       	ret
     274:	8a 31       	cpi	r24, 0x1A	; 26
     276:	91 05       	cpc	r25, r1
     278:	11 f4       	brne	.+4      	; 0x27e <pinChange+0xea>
     27a:	ae 98       	cbi	0x15, 6	; 21
     27c:	08 95       	ret
     27e:	8b 31       	cpi	r24, 0x1B	; 27
     280:	91 05       	cpc	r25, r1
     282:	11 f4       	brne	.+4      	; 0x288 <pinChange+0xf4>
     284:	af 98       	cbi	0x15, 7	; 21
     286:	08 95       	ret
     288:	8e 31       	cpi	r24, 0x1E	; 30
     28a:	91 05       	cpc	r25, r1
     28c:	11 f4       	brne	.+4      	; 0x292 <pinChange+0xfe>
     28e:	90 98       	cbi	0x12, 0	; 18
     290:	08 95       	ret
     292:	8f 31       	cpi	r24, 0x1F	; 31
     294:	91 05       	cpc	r25, r1
     296:	11 f4       	brne	.+4      	; 0x29c <pinChange+0x108>
     298:	91 98       	cbi	0x12, 1	; 18
     29a:	08 95       	ret
     29c:	80 32       	cpi	r24, 0x20	; 32
     29e:	91 05       	cpc	r25, r1
     2a0:	11 f4       	brne	.+4      	; 0x2a6 <pinChange+0x112>
     2a2:	92 98       	cbi	0x12, 2	; 18
     2a4:	08 95       	ret
     2a6:	81 32       	cpi	r24, 0x21	; 33
     2a8:	91 05       	cpc	r25, r1
     2aa:	11 f4       	brne	.+4      	; 0x2b0 <pinChange+0x11c>
     2ac:	93 98       	cbi	0x12, 3	; 18
     2ae:	08 95       	ret
     2b0:	82 32       	cpi	r24, 0x22	; 34
     2b2:	91 05       	cpc	r25, r1
     2b4:	11 f4       	brne	.+4      	; 0x2ba <pinChange+0x126>
     2b6:	94 98       	cbi	0x12, 4	; 18
     2b8:	08 95       	ret
     2ba:	83 32       	cpi	r24, 0x23	; 35
     2bc:	91 05       	cpc	r25, r1
     2be:	11 f4       	brne	.+4      	; 0x2c4 <pinChange+0x130>
     2c0:	95 98       	cbi	0x12, 5	; 18
     2c2:	08 95       	ret
     2c4:	84 32       	cpi	r24, 0x24	; 36
     2c6:	91 05       	cpc	r25, r1
     2c8:	11 f4       	brne	.+4      	; 0x2ce <pinChange+0x13a>
     2ca:	96 98       	cbi	0x12, 6	; 18
     2cc:	08 95       	ret
     2ce:	85 97       	sbiw	r24, 0x25	; 37
     2d0:	09 f0       	breq	.+2      	; 0x2d4 <pinChange+0x140>
     2d2:	9f c0       	rjmp	.+318    	; 0x412 <__FUSE_REGION_LENGTH__+0x12>
     2d4:	97 98       	cbi	0x12, 7	; 18
     2d6:	08 95       	ret
     2d8:	00 97       	sbiw	r24, 0x00	; 0
     2da:	11 f4       	brne	.+4      	; 0x2e0 <pinChange+0x14c>
     2dc:	d8 9a       	sbi	0x1b, 0	; 27
     2de:	08 95       	ret
     2e0:	81 30       	cpi	r24, 0x01	; 1
     2e2:	91 05       	cpc	r25, r1
     2e4:	11 f4       	brne	.+4      	; 0x2ea <pinChange+0x156>
     2e6:	d9 9a       	sbi	0x1b, 1	; 27
     2e8:	08 95       	ret
     2ea:	82 30       	cpi	r24, 0x02	; 2
     2ec:	91 05       	cpc	r25, r1
     2ee:	11 f4       	brne	.+4      	; 0x2f4 <pinChange+0x160>
     2f0:	da 9a       	sbi	0x1b, 2	; 27
     2f2:	08 95       	ret
     2f4:	83 30       	cpi	r24, 0x03	; 3
     2f6:	91 05       	cpc	r25, r1
     2f8:	11 f4       	brne	.+4      	; 0x2fe <pinChange+0x16a>
     2fa:	db 9a       	sbi	0x1b, 3	; 27
     2fc:	08 95       	ret
     2fe:	84 30       	cpi	r24, 0x04	; 4
     300:	91 05       	cpc	r25, r1
     302:	11 f4       	brne	.+4      	; 0x308 <pinChange+0x174>
     304:	dc 9a       	sbi	0x1b, 4	; 27
     306:	08 95       	ret
     308:	85 30       	cpi	r24, 0x05	; 5
     30a:	91 05       	cpc	r25, r1
     30c:	11 f4       	brne	.+4      	; 0x312 <pinChange+0x17e>
     30e:	dd 9a       	sbi	0x1b, 5	; 27
     310:	08 95       	ret
     312:	86 30       	cpi	r24, 0x06	; 6
     314:	91 05       	cpc	r25, r1
     316:	11 f4       	brne	.+4      	; 0x31c <pinChange+0x188>
     318:	de 9a       	sbi	0x1b, 6	; 27
     31a:	08 95       	ret
     31c:	87 30       	cpi	r24, 0x07	; 7
     31e:	91 05       	cpc	r25, r1
     320:	11 f4       	brne	.+4      	; 0x326 <pinChange+0x192>
     322:	df 9a       	sbi	0x1b, 7	; 27
     324:	08 95       	ret
     326:	8a 30       	cpi	r24, 0x0A	; 10
     328:	91 05       	cpc	r25, r1
     32a:	11 f4       	brne	.+4      	; 0x330 <pinChange+0x19c>
     32c:	c0 9a       	sbi	0x18, 0	; 24
     32e:	08 95       	ret
     330:	8b 30       	cpi	r24, 0x0B	; 11
     332:	91 05       	cpc	r25, r1
     334:	11 f4       	brne	.+4      	; 0x33a <pinChange+0x1a6>
     336:	c1 9a       	sbi	0x18, 1	; 24
     338:	08 95       	ret
     33a:	8c 30       	cpi	r24, 0x0C	; 12
     33c:	91 05       	cpc	r25, r1
     33e:	11 f4       	brne	.+4      	; 0x344 <pinChange+0x1b0>
     340:	c2 9a       	sbi	0x18, 2	; 24
     342:	08 95       	ret
     344:	8d 30       	cpi	r24, 0x0D	; 13
     346:	91 05       	cpc	r25, r1
     348:	11 f4       	brne	.+4      	; 0x34e <pinChange+0x1ba>
     34a:	c3 9a       	sbi	0x18, 3	; 24
     34c:	08 95       	ret
     34e:	8e 30       	cpi	r24, 0x0E	; 14
     350:	91 05       	cpc	r25, r1
     352:	11 f4       	brne	.+4      	; 0x358 <pinChange+0x1c4>
     354:	c4 9a       	sbi	0x18, 4	; 24
     356:	08 95       	ret
     358:	8f 30       	cpi	r24, 0x0F	; 15
     35a:	91 05       	cpc	r25, r1
     35c:	11 f4       	brne	.+4      	; 0x362 <pinChange+0x1ce>
     35e:	c5 9a       	sbi	0x18, 5	; 24
     360:	08 95       	ret
     362:	80 31       	cpi	r24, 0x10	; 16
     364:	91 05       	cpc	r25, r1
     366:	11 f4       	brne	.+4      	; 0x36c <pinChange+0x1d8>
     368:	c6 9a       	sbi	0x18, 6	; 24
     36a:	08 95       	ret
     36c:	81 31       	cpi	r24, 0x11	; 17
     36e:	91 05       	cpc	r25, r1
     370:	11 f4       	brne	.+4      	; 0x376 <pinChange+0x1e2>
     372:	c7 9a       	sbi	0x18, 7	; 24
     374:	08 95       	ret
     376:	84 31       	cpi	r24, 0x14	; 20
     378:	91 05       	cpc	r25, r1
     37a:	11 f4       	brne	.+4      	; 0x380 <pinChange+0x1ec>
     37c:	a8 9a       	sbi	0x15, 0	; 21
     37e:	08 95       	ret
     380:	85 31       	cpi	r24, 0x15	; 21
     382:	91 05       	cpc	r25, r1
     384:	11 f4       	brne	.+4      	; 0x38a <pinChange+0x1f6>
     386:	a9 9a       	sbi	0x15, 1	; 21
     388:	08 95       	ret
     38a:	86 31       	cpi	r24, 0x16	; 22
     38c:	91 05       	cpc	r25, r1
     38e:	11 f4       	brne	.+4      	; 0x394 <pinChange+0x200>
     390:	aa 9a       	sbi	0x15, 2	; 21
     392:	08 95       	ret
     394:	87 31       	cpi	r24, 0x17	; 23
     396:	91 05       	cpc	r25, r1
     398:	11 f4       	brne	.+4      	; 0x39e <pinChange+0x20a>
     39a:	ab 9a       	sbi	0x15, 3	; 21
     39c:	08 95       	ret
     39e:	88 31       	cpi	r24, 0x18	; 24
     3a0:	91 05       	cpc	r25, r1
     3a2:	11 f4       	brne	.+4      	; 0x3a8 <pinChange+0x214>
     3a4:	ac 9a       	sbi	0x15, 4	; 21
     3a6:	08 95       	ret
     3a8:	89 31       	cpi	r24, 0x19	; 25
     3aa:	91 05       	cpc	r25, r1
     3ac:	11 f4       	brne	.+4      	; 0x3b2 <pinChange+0x21e>
     3ae:	ad 9a       	sbi	0x15, 5	; 21
     3b0:	08 95       	ret
     3b2:	8a 31       	cpi	r24, 0x1A	; 26
     3b4:	91 05       	cpc	r25, r1
     3b6:	11 f4       	brne	.+4      	; 0x3bc <pinChange+0x228>
     3b8:	ae 9a       	sbi	0x15, 6	; 21
     3ba:	08 95       	ret
     3bc:	8b 31       	cpi	r24, 0x1B	; 27
     3be:	91 05       	cpc	r25, r1
     3c0:	11 f4       	brne	.+4      	; 0x3c6 <pinChange+0x232>
     3c2:	af 9a       	sbi	0x15, 7	; 21
     3c4:	08 95       	ret
     3c6:	8e 31       	cpi	r24, 0x1E	; 30
     3c8:	91 05       	cpc	r25, r1
     3ca:	11 f4       	brne	.+4      	; 0x3d0 <pinChange+0x23c>
     3cc:	90 9a       	sbi	0x12, 0	; 18
     3ce:	08 95       	ret
     3d0:	8f 31       	cpi	r24, 0x1F	; 31
     3d2:	91 05       	cpc	r25, r1
     3d4:	11 f4       	brne	.+4      	; 0x3da <pinChange+0x246>
     3d6:	91 9a       	sbi	0x12, 1	; 18
     3d8:	08 95       	ret
     3da:	80 32       	cpi	r24, 0x20	; 32
     3dc:	91 05       	cpc	r25, r1
     3de:	11 f4       	brne	.+4      	; 0x3e4 <pinChange+0x250>
     3e0:	92 9a       	sbi	0x12, 2	; 18
     3e2:	08 95       	ret
     3e4:	81 32       	cpi	r24, 0x21	; 33
     3e6:	91 05       	cpc	r25, r1
     3e8:	11 f4       	brne	.+4      	; 0x3ee <pinChange+0x25a>
     3ea:	93 9a       	sbi	0x12, 3	; 18
     3ec:	08 95       	ret
     3ee:	82 32       	cpi	r24, 0x22	; 34
     3f0:	91 05       	cpc	r25, r1
     3f2:	11 f4       	brne	.+4      	; 0x3f8 <pinChange+0x264>
     3f4:	94 9a       	sbi	0x12, 4	; 18
     3f6:	08 95       	ret
     3f8:	83 32       	cpi	r24, 0x23	; 35
     3fa:	91 05       	cpc	r25, r1
     3fc:	11 f4       	brne	.+4      	; 0x402 <__FUSE_REGION_LENGTH__+0x2>
     3fe:	95 9a       	sbi	0x12, 5	; 18
     400:	08 95       	ret
     402:	84 32       	cpi	r24, 0x24	; 36
     404:	91 05       	cpc	r25, r1
     406:	11 f4       	brne	.+4      	; 0x40c <__FUSE_REGION_LENGTH__+0xc>
     408:	96 9a       	sbi	0x12, 6	; 18
     40a:	08 95       	ret
     40c:	85 97       	sbiw	r24, 0x25	; 37
     40e:	09 f4       	brne	.+2      	; 0x412 <__FUSE_REGION_LENGTH__+0x12>
     410:	97 9a       	sbi	0x12, 7	; 18
     412:	08 95       	ret

00000414 <Lcd4_Port>:
     414:	cf 93       	push	r28
     416:	c8 2f       	mov	r28, r24
     418:	80 ff       	sbrs	r24, 0
     41a:	07 c0       	rjmp	.+14     	; 0x42a <Lcd4_Port+0x16>
     41c:	61 e0       	ldi	r22, 0x01	; 1
     41e:	70 e0       	ldi	r23, 0x00	; 0
     420:	8a e0       	ldi	r24, 0x0A	; 10
     422:	90 e0       	ldi	r25, 0x00	; 0
     424:	0e 94 ca 00 	call	0x194	; 0x194 <pinChange>
     428:	06 c0       	rjmp	.+12     	; 0x436 <Lcd4_Port+0x22>
     42a:	60 e0       	ldi	r22, 0x00	; 0
     42c:	70 e0       	ldi	r23, 0x00	; 0
     42e:	8a e0       	ldi	r24, 0x0A	; 10
     430:	90 e0       	ldi	r25, 0x00	; 0
     432:	0e 94 ca 00 	call	0x194	; 0x194 <pinChange>
     436:	c1 ff       	sbrs	r28, 1
     438:	07 c0       	rjmp	.+14     	; 0x448 <Lcd4_Port+0x34>
     43a:	61 e0       	ldi	r22, 0x01	; 1
     43c:	70 e0       	ldi	r23, 0x00	; 0
     43e:	8b e0       	ldi	r24, 0x0B	; 11
     440:	90 e0       	ldi	r25, 0x00	; 0
     442:	0e 94 ca 00 	call	0x194	; 0x194 <pinChange>
     446:	06 c0       	rjmp	.+12     	; 0x454 <Lcd4_Port+0x40>
     448:	60 e0       	ldi	r22, 0x00	; 0
     44a:	70 e0       	ldi	r23, 0x00	; 0
     44c:	8b e0       	ldi	r24, 0x0B	; 11
     44e:	90 e0       	ldi	r25, 0x00	; 0
     450:	0e 94 ca 00 	call	0x194	; 0x194 <pinChange>
     454:	c2 ff       	sbrs	r28, 2
     456:	07 c0       	rjmp	.+14     	; 0x466 <__stack+0x7>
     458:	61 e0       	ldi	r22, 0x01	; 1
     45a:	70 e0       	ldi	r23, 0x00	; 0
     45c:	8c e0       	ldi	r24, 0x0C	; 12
     45e:	90 e0       	ldi	r25, 0x00	; 0
     460:	0e 94 ca 00 	call	0x194	; 0x194 <pinChange>
     464:	06 c0       	rjmp	.+12     	; 0x472 <__stack+0x13>
     466:	60 e0       	ldi	r22, 0x00	; 0
     468:	70 e0       	ldi	r23, 0x00	; 0
     46a:	8c e0       	ldi	r24, 0x0C	; 12
     46c:	90 e0       	ldi	r25, 0x00	; 0
     46e:	0e 94 ca 00 	call	0x194	; 0x194 <pinChange>
     472:	c3 ff       	sbrs	r28, 3
     474:	07 c0       	rjmp	.+14     	; 0x484 <__stack+0x25>
     476:	61 e0       	ldi	r22, 0x01	; 1
     478:	70 e0       	ldi	r23, 0x00	; 0
     47a:	8d e0       	ldi	r24, 0x0D	; 13
     47c:	90 e0       	ldi	r25, 0x00	; 0
     47e:	0e 94 ca 00 	call	0x194	; 0x194 <pinChange>
     482:	06 c0       	rjmp	.+12     	; 0x490 <__stack+0x31>
     484:	60 e0       	ldi	r22, 0x00	; 0
     486:	70 e0       	ldi	r23, 0x00	; 0
     488:	8d e0       	ldi	r24, 0x0D	; 13
     48a:	90 e0       	ldi	r25, 0x00	; 0
     48c:	0e 94 ca 00 	call	0x194	; 0x194 <pinChange>
     490:	cf 91       	pop	r28
     492:	08 95       	ret

00000494 <Lcd4_Cmd>:
     494:	cf 93       	push	r28
     496:	c8 2f       	mov	r28, r24
     498:	60 e0       	ldi	r22, 0x00	; 0
     49a:	70 e0       	ldi	r23, 0x00	; 0
     49c:	8e e0       	ldi	r24, 0x0E	; 14
     49e:	90 e0       	ldi	r25, 0x00	; 0
     4a0:	0e 94 ca 00 	call	0x194	; 0x194 <pinChange>
     4a4:	8c 2f       	mov	r24, r28
     4a6:	0e 94 0a 02 	call	0x414	; 0x414 <Lcd4_Port>
     4aa:	61 e0       	ldi	r22, 0x01	; 1
     4ac:	70 e0       	ldi	r23, 0x00	; 0
     4ae:	8f e0       	ldi	r24, 0x0F	; 15
     4b0:	90 e0       	ldi	r25, 0x00	; 0
     4b2:	0e 94 ca 00 	call	0x194	; 0x194 <pinChange>
     4b6:	8f e9       	ldi	r24, 0x9F	; 159
     4b8:	9f e0       	ldi	r25, 0x0F	; 15
     4ba:	01 97       	sbiw	r24, 0x01	; 1
     4bc:	f1 f7       	brne	.-4      	; 0x4ba <Lcd4_Cmd+0x26>
     4be:	00 c0       	rjmp	.+0      	; 0x4c0 <Lcd4_Cmd+0x2c>
     4c0:	00 00       	nop
     4c2:	60 e0       	ldi	r22, 0x00	; 0
     4c4:	70 e0       	ldi	r23, 0x00	; 0
     4c6:	8f e0       	ldi	r24, 0x0F	; 15
     4c8:	90 e0       	ldi	r25, 0x00	; 0
     4ca:	0e 94 ca 00 	call	0x194	; 0x194 <pinChange>
     4ce:	8f e9       	ldi	r24, 0x9F	; 159
     4d0:	9f e0       	ldi	r25, 0x0F	; 15
     4d2:	01 97       	sbiw	r24, 0x01	; 1
     4d4:	f1 f7       	brne	.-4      	; 0x4d2 <Lcd4_Cmd+0x3e>
     4d6:	00 c0       	rjmp	.+0      	; 0x4d8 <Lcd4_Cmd+0x44>
     4d8:	00 00       	nop
     4da:	cf 91       	pop	r28
     4dc:	08 95       	ret

000004de <Lcd4_Clear>:
     4de:	80 e0       	ldi	r24, 0x00	; 0
     4e0:	0e 94 4a 02 	call	0x494	; 0x494 <Lcd4_Cmd>
     4e4:	81 e0       	ldi	r24, 0x01	; 1
     4e6:	0e 94 4a 02 	call	0x494	; 0x494 <Lcd4_Cmd>
     4ea:	08 95       	ret

000004ec <Lcd4_Set_Cursor>:
     4ec:	cf 93       	push	r28
     4ee:	c6 2f       	mov	r28, r22
     4f0:	81 30       	cpi	r24, 0x01	; 1
     4f2:	59 f4       	brne	.+22     	; 0x50a <Lcd4_Set_Cursor+0x1e>
     4f4:	80 e8       	ldi	r24, 0x80	; 128
     4f6:	86 0f       	add	r24, r22
     4f8:	82 95       	swap	r24
     4fa:	8f 70       	andi	r24, 0x0F	; 15
     4fc:	0e 94 4a 02 	call	0x494	; 0x494 <Lcd4_Cmd>
     500:	8c 2f       	mov	r24, r28
     502:	8f 70       	andi	r24, 0x0F	; 15
     504:	0e 94 4a 02 	call	0x494	; 0x494 <Lcd4_Cmd>
     508:	0c c0       	rjmp	.+24     	; 0x522 <Lcd4_Set_Cursor+0x36>
     50a:	82 30       	cpi	r24, 0x02	; 2
     50c:	51 f4       	brne	.+20     	; 0x522 <Lcd4_Set_Cursor+0x36>
     50e:	80 ec       	ldi	r24, 0xC0	; 192
     510:	86 0f       	add	r24, r22
     512:	82 95       	swap	r24
     514:	8f 70       	andi	r24, 0x0F	; 15
     516:	0e 94 4a 02 	call	0x494	; 0x494 <Lcd4_Cmd>
     51a:	8c 2f       	mov	r24, r28
     51c:	8f 70       	andi	r24, 0x0F	; 15
     51e:	0e 94 4a 02 	call	0x494	; 0x494 <Lcd4_Cmd>
     522:	cf 91       	pop	r28
     524:	08 95       	ret

00000526 <Lcd4_Init>:
     526:	80 e0       	ldi	r24, 0x00	; 0
     528:	0e 94 0a 02 	call	0x414	; 0x414 <Lcd4_Port>
     52c:	2f ef       	ldi	r18, 0xFF	; 255
     52e:	89 ef       	ldi	r24, 0xF9	; 249
     530:	90 e0       	ldi	r25, 0x00	; 0
     532:	21 50       	subi	r18, 0x01	; 1
     534:	80 40       	sbci	r24, 0x00	; 0
     536:	90 40       	sbci	r25, 0x00	; 0
     538:	e1 f7       	brne	.-8      	; 0x532 <Lcd4_Init+0xc>
     53a:	00 c0       	rjmp	.+0      	; 0x53c <Lcd4_Init+0x16>
     53c:	00 00       	nop
     53e:	83 e0       	ldi	r24, 0x03	; 3
     540:	0e 94 4a 02 	call	0x494	; 0x494 <Lcd4_Cmd>
     544:	8f e1       	ldi	r24, 0x1F	; 31
     546:	9e e4       	ldi	r25, 0x4E	; 78
     548:	01 97       	sbiw	r24, 0x01	; 1
     54a:	f1 f7       	brne	.-4      	; 0x548 <Lcd4_Init+0x22>
     54c:	00 c0       	rjmp	.+0      	; 0x54e <Lcd4_Init+0x28>
     54e:	00 00       	nop
     550:	83 e0       	ldi	r24, 0x03	; 3
     552:	0e 94 4a 02 	call	0x494	; 0x494 <Lcd4_Cmd>
     556:	8f ed       	ldi	r24, 0xDF	; 223
     558:	9b ea       	ldi	r25, 0xAB	; 171
     55a:	01 97       	sbiw	r24, 0x01	; 1
     55c:	f1 f7       	brne	.-4      	; 0x55a <Lcd4_Init+0x34>
     55e:	00 c0       	rjmp	.+0      	; 0x560 <Lcd4_Init+0x3a>
     560:	00 00       	nop
     562:	83 e0       	ldi	r24, 0x03	; 3
     564:	0e 94 4a 02 	call	0x494	; 0x494 <Lcd4_Cmd>
     568:	82 e0       	ldi	r24, 0x02	; 2
     56a:	0e 94 4a 02 	call	0x494	; 0x494 <Lcd4_Cmd>
     56e:	82 e0       	ldi	r24, 0x02	; 2
     570:	0e 94 4a 02 	call	0x494	; 0x494 <Lcd4_Cmd>
     574:	88 e0       	ldi	r24, 0x08	; 8
     576:	0e 94 4a 02 	call	0x494	; 0x494 <Lcd4_Cmd>
     57a:	80 e0       	ldi	r24, 0x00	; 0
     57c:	0e 94 4a 02 	call	0x494	; 0x494 <Lcd4_Cmd>
     580:	8c e0       	ldi	r24, 0x0C	; 12
     582:	0e 94 4a 02 	call	0x494	; 0x494 <Lcd4_Cmd>
     586:	80 e0       	ldi	r24, 0x00	; 0
     588:	0e 94 4a 02 	call	0x494	; 0x494 <Lcd4_Cmd>
     58c:	86 e0       	ldi	r24, 0x06	; 6
     58e:	0e 94 4a 02 	call	0x494	; 0x494 <Lcd4_Cmd>
     592:	08 95       	ret

00000594 <Lcd4_Write_Char>:
     594:	cf 93       	push	r28
     596:	c8 2f       	mov	r28, r24
     598:	61 e0       	ldi	r22, 0x01	; 1
     59a:	70 e0       	ldi	r23, 0x00	; 0
     59c:	8e e0       	ldi	r24, 0x0E	; 14
     59e:	90 e0       	ldi	r25, 0x00	; 0
     5a0:	0e 94 ca 00 	call	0x194	; 0x194 <pinChange>
     5a4:	8c 2f       	mov	r24, r28
     5a6:	82 95       	swap	r24
     5a8:	8f 70       	andi	r24, 0x0F	; 15
     5aa:	0e 94 0a 02 	call	0x414	; 0x414 <Lcd4_Port>
     5ae:	61 e0       	ldi	r22, 0x01	; 1
     5b0:	70 e0       	ldi	r23, 0x00	; 0
     5b2:	8f e0       	ldi	r24, 0x0F	; 15
     5b4:	90 e0       	ldi	r25, 0x00	; 0
     5b6:	0e 94 ca 00 	call	0x194	; 0x194 <pinChange>
     5ba:	8f e9       	ldi	r24, 0x9F	; 159
     5bc:	9f e0       	ldi	r25, 0x0F	; 15
     5be:	01 97       	sbiw	r24, 0x01	; 1
     5c0:	f1 f7       	brne	.-4      	; 0x5be <Lcd4_Write_Char+0x2a>
     5c2:	00 c0       	rjmp	.+0      	; 0x5c4 <Lcd4_Write_Char+0x30>
     5c4:	00 00       	nop
     5c6:	60 e0       	ldi	r22, 0x00	; 0
     5c8:	70 e0       	ldi	r23, 0x00	; 0
     5ca:	8f e0       	ldi	r24, 0x0F	; 15
     5cc:	90 e0       	ldi	r25, 0x00	; 0
     5ce:	0e 94 ca 00 	call	0x194	; 0x194 <pinChange>
     5d2:	8f e9       	ldi	r24, 0x9F	; 159
     5d4:	9f e0       	ldi	r25, 0x0F	; 15
     5d6:	01 97       	sbiw	r24, 0x01	; 1
     5d8:	f1 f7       	brne	.-4      	; 0x5d6 <Lcd4_Write_Char+0x42>
     5da:	00 c0       	rjmp	.+0      	; 0x5dc <Lcd4_Write_Char+0x48>
     5dc:	00 00       	nop
     5de:	8c 2f       	mov	r24, r28
     5e0:	8f 70       	andi	r24, 0x0F	; 15
     5e2:	0e 94 0a 02 	call	0x414	; 0x414 <Lcd4_Port>
     5e6:	61 e0       	ldi	r22, 0x01	; 1
     5e8:	70 e0       	ldi	r23, 0x00	; 0
     5ea:	8f e0       	ldi	r24, 0x0F	; 15
     5ec:	90 e0       	ldi	r25, 0x00	; 0
     5ee:	0e 94 ca 00 	call	0x194	; 0x194 <pinChange>
     5f2:	8f e9       	ldi	r24, 0x9F	; 159
     5f4:	9f e0       	ldi	r25, 0x0F	; 15
     5f6:	01 97       	sbiw	r24, 0x01	; 1
     5f8:	f1 f7       	brne	.-4      	; 0x5f6 <Lcd4_Write_Char+0x62>
     5fa:	00 c0       	rjmp	.+0      	; 0x5fc <Lcd4_Write_Char+0x68>
     5fc:	00 00       	nop
     5fe:	60 e0       	ldi	r22, 0x00	; 0
     600:	70 e0       	ldi	r23, 0x00	; 0
     602:	8f e0       	ldi	r24, 0x0F	; 15
     604:	90 e0       	ldi	r25, 0x00	; 0
     606:	0e 94 ca 00 	call	0x194	; 0x194 <pinChange>
     60a:	8f e9       	ldi	r24, 0x9F	; 159
     60c:	9f e0       	ldi	r25, 0x0F	; 15
     60e:	01 97       	sbiw	r24, 0x01	; 1
     610:	f1 f7       	brne	.-4      	; 0x60e <Lcd4_Write_Char+0x7a>
     612:	00 c0       	rjmp	.+0      	; 0x614 <Lcd4_Write_Char+0x80>
     614:	00 00       	nop
     616:	cf 91       	pop	r28
     618:	08 95       	ret

0000061a <Lcd4_Write_String>:
     61a:	cf 93       	push	r28
     61c:	df 93       	push	r29
     61e:	ec 01       	movw	r28, r24
     620:	88 81       	ld	r24, Y
     622:	88 23       	and	r24, r24
     624:	31 f0       	breq	.+12     	; 0x632 <Lcd4_Write_String+0x18>
     626:	21 96       	adiw	r28, 0x01	; 1
     628:	0e 94 ca 02 	call	0x594	; 0x594 <Lcd4_Write_Char>
     62c:	89 91       	ld	r24, Y+
     62e:	81 11       	cpse	r24, r1
     630:	fb cf       	rjmp	.-10     	; 0x628 <Lcd4_Write_String+0xe>
     632:	df 91       	pop	r29
     634:	cf 91       	pop	r28
     636:	08 95       	ret

00000638 <ADC_value>:
// 	pot_value=ADC*0.00488; // final value
// 	return pot_value;
// }
double ADC_value(bool x)
{
	switch (x){
     638:	81 30       	cpi	r24, 0x01	; 1
     63a:	19 f0       	breq	.+6      	; 0x642 <ADC_value+0xa>
		case 0:
			ADMUX |= (0 << MUX0);break;
     63c:	87 b1       	in	r24, 0x07	; 7
     63e:	87 b9       	out	0x07, r24	; 7
     640:	01 c0       	rjmp	.+2      	; 0x644 <ADC_value+0xc>
		case 1:
			ADMUX |= (1 << MUX0);break;
     642:	38 9a       	sbi	0x07, 0	; 7
	}	
	ADCSRA |= (1 << ADSC); //active reading
     644:	36 9a       	sbi	0x06, 6	; 6
	while(ADCSRA & (1<<ADSC)); // wait the A/D to complete reading and converting
     646:	36 99       	sbic	0x06, 6	; 6
     648:	fe cf       	rjmp	.-4      	; 0x646 <ADC_value+0xe>
	value=ADC*(4.88E-3); // final value
     64a:	64 b1       	in	r22, 0x04	; 4
     64c:	75 b1       	in	r23, 0x05	; 5
     64e:	80 e0       	ldi	r24, 0x00	; 0
     650:	90 e0       	ldi	r25, 0x00	; 0
     652:	0e 94 de 05 	call	0xbbc	; 0xbbc <__floatunsisf>
     656:	28 e6       	ldi	r18, 0x68	; 104
     658:	38 ee       	ldi	r19, 0xE8	; 232
     65a:	4f e9       	ldi	r20, 0x9F	; 159
     65c:	5b e3       	ldi	r21, 0x3B	; 59
     65e:	0e 94 49 06 	call	0xc92	; 0xc92 <__mulsf3>
     662:	60 93 d7 00 	sts	0x00D7, r22
     666:	70 93 d8 00 	sts	0x00D8, r23
     66a:	80 93 d9 00 	sts	0x00D9, r24
     66e:	90 93 da 00 	sts	0x00DA, r25
	return value;
     672:	60 91 d7 00 	lds	r22, 0x00D7
     676:	70 91 d8 00 	lds	r23, 0x00D8
     67a:	80 91 d9 00 	lds	r24, 0x00D9
     67e:	90 91 da 00 	lds	r25, 0x00DA
}
     682:	08 95       	ret

00000684 <Init>:
void Init(void){
	MCUCR |= (1 << ISC01)|(1 << ISC10);
     684:	85 b7       	in	r24, 0x35	; 53
     686:	86 60       	ori	r24, 0x06	; 6
     688:	85 bf       	out	0x35, r24	; 53
	GICR |= (1 << INT0)|(1 << INT1);
     68a:	8b b7       	in	r24, 0x3b	; 59
     68c:	80 6c       	ori	r24, 0xC0	; 192
     68e:	8b bf       	out	0x3b, r24	; 59
	ADCSRA |= 0x87; //to active A/D pins
     690:	86 b1       	in	r24, 0x06	; 6
     692:	87 68       	ori	r24, 0x87	; 135
     694:	86 b9       	out	0x06, r24	; 6
	ADMUX |= (1<<REFS0);
     696:	3e 9a       	sbi	0x07, 6	; 7
	TCCR2 |= (1<<WGM20)|(1<<WGM21)|(1<<COM21)|(1<<CS20)|(1<<CS21)|(1<<CS22);
     698:	85 b5       	in	r24, 0x25	; 37
     69a:	8f 66       	ori	r24, 0x6F	; 111
     69c:	85 bd       	out	0x25, r24	; 37
	sei();
     69e:	78 94       	sei
	DDRB |=(1<<PB0)|(1<<PB1)|(1<<PB2)|(1<<PB3)|(1<<PB4)|(1<<PB5);
     6a0:	87 b3       	in	r24, 0x17	; 23
     6a2:	8f 63       	ori	r24, 0x3F	; 63
     6a4:	87 bb       	out	0x17, r24	; 23
	DDRA |=(0<<PA0)|(0<<PA1);
     6a6:	8a b3       	in	r24, 0x1a	; 26
     6a8:	8a bb       	out	0x1a, r24	; 26
	DDRC |=(1<<PC0)|(1<<PC1)|(1<<PC2)|(1<<PC3)|(1<<PC4);
     6aa:	84 b3       	in	r24, 0x14	; 20
     6ac:	8f 61       	ori	r24, 0x1F	; 31
     6ae:	84 bb       	out	0x14, r24	; 20
	Lcd4_Init();
     6b0:	0e 94 93 02 	call	0x526	; 0x526 <Lcd4_Init>
     6b4:	08 95       	ret

000006b6 <main>:
double ADC_value(bool x);
void Init(void);

int main(void)
{
	Init();
     6b6:	0e 94 42 03 	call	0x684	; 0x684 <Init>
		} 
		else
		{
			ADC_value(0);
			Lcd4_Clear();
			sprintf(output,dtostrf(thr, 3,3,"%f"));
     6ba:	c2 e7       	ldi	r28, 0x72	; 114
     6bc:	d0 e0       	ldi	r29, 0x00	; 0
	Init();
	
    while (1) 
    {
		
		float thr = ADC_value(0);
     6be:	80 e0       	ldi	r24, 0x00	; 0
     6c0:	0e 94 1c 03 	call	0x638	; 0x638 <ADC_value>
     6c4:	6b 01       	movw	r12, r22
     6c6:	7c 01       	movw	r14, r24
		if (status && thr>=27)
     6c8:	80 91 d6 00 	lds	r24, 0x00D6
     6cc:	88 23       	and	r24, r24
     6ce:	b1 f1       	breq	.+108    	; 0x73c <main+0x86>
     6d0:	20 e0       	ldi	r18, 0x00	; 0
     6d2:	30 e0       	ldi	r19, 0x00	; 0
     6d4:	48 ed       	ldi	r20, 0xD8	; 216
     6d6:	51 e4       	ldi	r21, 0x41	; 65
     6d8:	c7 01       	movw	r24, r14
     6da:	b6 01       	movw	r22, r12
     6dc:	0e 94 44 06 	call	0xc88	; 0xc88 <__gesf2>
     6e0:	88 23       	and	r24, r24
     6e2:	64 f1       	brlt	.+88     	; 0x73c <main+0x86>
		{
			int speed = ADC_value(1);
     6e4:	81 e0       	ldi	r24, 0x01	; 1
     6e6:	0e 94 1c 03 	call	0x638	; 0x638 <ADC_value>
     6ea:	0e 94 a8 05 	call	0xb50	; 0xb50 <__fixsfsi>
     6ee:	6b 01       	movw	r12, r22
     6f0:	7c 01       	movw	r14, r24
			Lcd4_Clear();
     6f2:	0e 94 6f 02 	call	0x4de	; 0x4de <Lcd4_Clear>
			StepperInit(16,speed);
     6f6:	b6 01       	movw	r22, r12
     6f8:	80 e1       	ldi	r24, 0x10	; 16
     6fa:	90 e0       	ldi	r25, 0x00	; 0
     6fc:	0e 94 80 05 	call	0xb00	; 0xb00 <StepperInit>
    } else if (__radix < 2 || __radix > 36) {
	*__s = 0;
	return __s;
    } else {
	extern char *__itoa_ncheck (int, char *, unsigned char);
	return __itoa_ncheck (__val, __s, __radix);
     700:	4a e0       	ldi	r20, 0x0A	; 10
     702:	be 01       	movw	r22, r28
     704:	c6 01       	movw	r24, r12
     706:	0e 94 c3 0b 	call	0x1786	; 0x1786 <__itoa_ncheck>
			itoa(speed, output, 10);// convert the value from integer to string to display
			Lcd4_Set_Cursor(1,1);
     70a:	61 e0       	ldi	r22, 0x01	; 1
     70c:	81 e0       	ldi	r24, 0x01	; 1
     70e:	0e 94 76 02 	call	0x4ec	; 0x4ec <Lcd4_Set_Cursor>
			Lcd4_Write_String("the speed is");
     712:	80 e6       	ldi	r24, 0x60	; 96
     714:	90 e0       	ldi	r25, 0x00	; 0
     716:	0e 94 0d 03 	call	0x61a	; 0x61a <Lcd4_Write_String>
			Lcd4_Set_Cursor(2,1);
     71a:	61 e0       	ldi	r22, 0x01	; 1
     71c:	82 e0       	ldi	r24, 0x02	; 2
     71e:	0e 94 76 02 	call	0x4ec	; 0x4ec <Lcd4_Set_Cursor>
			Lcd4_Write_String(output);
     722:	ce 01       	movw	r24, r28
     724:	0e 94 0d 03 	call	0x61a	; 0x61a <Lcd4_Write_String>
	#else
		//round up by default
		__ticks_dc = (uint32_t)(ceil(fabs(__tmp)));
	#endif

	__builtin_avr_delay_cycles(__ticks_dc);
     728:	2f ef       	ldi	r18, 0xFF	; 255
     72a:	89 e6       	ldi	r24, 0x69	; 105
     72c:	98 e1       	ldi	r25, 0x18	; 24
     72e:	21 50       	subi	r18, 0x01	; 1
     730:	80 40       	sbci	r24, 0x00	; 0
     732:	90 40       	sbci	r25, 0x00	; 0
     734:	e1 f7       	brne	.-8      	; 0x72e <main+0x78>
     736:	00 c0       	rjmp	.+0      	; 0x738 <main+0x82>
     738:	00 00       	nop
     73a:	c1 cf       	rjmp	.-126    	; 0x6be <main+0x8>
			_delay_ms(500);
		} 
		else
		{
			ADC_value(0);
     73c:	80 e0       	ldi	r24, 0x00	; 0
     73e:	0e 94 1c 03 	call	0x638	; 0x638 <ADC_value>
			Lcd4_Clear();
     742:	0e 94 6f 02 	call	0x4de	; 0x4de <Lcd4_Clear>
			sprintf(output,dtostrf(thr, 3,3,"%f"));
     746:	0d e6       	ldi	r16, 0x6D	; 109
     748:	10 e0       	ldi	r17, 0x00	; 0
     74a:	23 e0       	ldi	r18, 0x03	; 3
     74c:	43 e0       	ldi	r20, 0x03	; 3
     74e:	c7 01       	movw	r24, r14
     750:	b6 01       	movw	r22, r12
     752:	0e 94 b5 0a 	call	0x156a	; 0x156a <dtostrf>
     756:	9f 93       	push	r25
     758:	8f 93       	push	r24
     75a:	df 93       	push	r29
     75c:	cf 93       	push	r28
     75e:	0e 94 20 0c 	call	0x1840	; 0x1840 <sprintf>
			Lcd4_Set_Cursor(1,1);
     762:	61 e0       	ldi	r22, 0x01	; 1
     764:	81 e0       	ldi	r24, 0x01	; 1
     766:	0e 94 76 02 	call	0x4ec	; 0x4ec <Lcd4_Set_Cursor>
			Lcd4_Write_String(output);
     76a:	ce 01       	movw	r24, r28
     76c:	0e 94 0d 03 	call	0x61a	; 0x61a <Lcd4_Write_String>
     770:	9f ef       	ldi	r25, 0xFF	; 255
     772:	29 e6       	ldi	r18, 0x69	; 105
     774:	88 e1       	ldi	r24, 0x18	; 24
     776:	91 50       	subi	r25, 0x01	; 1
     778:	20 40       	sbci	r18, 0x00	; 0
     77a:	80 40       	sbci	r24, 0x00	; 0
     77c:	e1 f7       	brne	.-8      	; 0x776 <main+0xc0>
     77e:	00 c0       	rjmp	.+0      	; 0x780 <main+0xca>
     780:	00 00       	nop
     782:	0f 90       	pop	r0
     784:	0f 90       	pop	r0
     786:	0f 90       	pop	r0
     788:	0f 90       	pop	r0
     78a:	99 cf       	rjmp	.-206    	; 0x6be <main+0x8>

0000078c <__vector_1>:
	DDRA |=(0<<PA0)|(0<<PA1);
	DDRC |=(1<<PC0)|(1<<PC1)|(1<<PC2)|(1<<PC3)|(1<<PC4);
	Lcd4_Init();
}
ISR(INT0_vect)
{
     78c:	1f 92       	push	r1
     78e:	0f 92       	push	r0
     790:	0f b6       	in	r0, 0x3f	; 63
     792:	0f 92       	push	r0
     794:	11 24       	eor	r1, r1
     796:	8f 93       	push	r24
	status = 1;
     798:	81 e0       	ldi	r24, 0x01	; 1
     79a:	80 93 d6 00 	sts	0x00D6, r24
}
     79e:	8f 91       	pop	r24
     7a0:	0f 90       	pop	r0
     7a2:	0f be       	out	0x3f, r0	; 63
     7a4:	0f 90       	pop	r0
     7a6:	1f 90       	pop	r1
     7a8:	18 95       	reti

000007aa <__vector_2>:
ISR(INT1_vect)
{
     7aa:	1f 92       	push	r1
     7ac:	0f 92       	push	r0
     7ae:	0f b6       	in	r0, 0x3f	; 63
     7b0:	0f 92       	push	r0
     7b2:	11 24       	eor	r1, r1
	status = 0;
     7b4:	10 92 d6 00 	sts	0x00D6, r1
}
     7b8:	0f 90       	pop	r0
     7ba:	0f be       	out	0x3f, r0	; 63
     7bc:	0f 90       	pop	r0
     7be:	1f 90       	pop	r1
     7c0:	18 95       	reti

000007c2 <STpinChange>:
	if(a & 1024)
	STpinChange(DIRD,1);
	else
	STpinChange(DIRD,0);
	
}
     7c2:	67 2b       	or	r22, r23
     7c4:	09 f0       	breq	.+2      	; 0x7c8 <STpinChange+0x6>
     7c6:	9f c0       	rjmp	.+318    	; 0x906 <STpinChange+0x144>
     7c8:	00 97       	sbiw	r24, 0x00	; 0
     7ca:	11 f4       	brne	.+4      	; 0x7d0 <STpinChange+0xe>
     7cc:	d8 98       	cbi	0x1b, 0	; 27
     7ce:	08 95       	ret
     7d0:	81 30       	cpi	r24, 0x01	; 1
     7d2:	91 05       	cpc	r25, r1
     7d4:	11 f4       	brne	.+4      	; 0x7da <STpinChange+0x18>
     7d6:	d9 98       	cbi	0x1b, 1	; 27
     7d8:	08 95       	ret
     7da:	82 30       	cpi	r24, 0x02	; 2
     7dc:	91 05       	cpc	r25, r1
     7de:	11 f4       	brne	.+4      	; 0x7e4 <STpinChange+0x22>
     7e0:	da 98       	cbi	0x1b, 2	; 27
     7e2:	08 95       	ret
     7e4:	83 30       	cpi	r24, 0x03	; 3
     7e6:	91 05       	cpc	r25, r1
     7e8:	11 f4       	brne	.+4      	; 0x7ee <STpinChange+0x2c>
     7ea:	db 98       	cbi	0x1b, 3	; 27
     7ec:	08 95       	ret
     7ee:	84 30       	cpi	r24, 0x04	; 4
     7f0:	91 05       	cpc	r25, r1
     7f2:	11 f4       	brne	.+4      	; 0x7f8 <STpinChange+0x36>
     7f4:	dc 98       	cbi	0x1b, 4	; 27
     7f6:	08 95       	ret
     7f8:	85 30       	cpi	r24, 0x05	; 5
     7fa:	91 05       	cpc	r25, r1
     7fc:	11 f4       	brne	.+4      	; 0x802 <STpinChange+0x40>
     7fe:	dd 98       	cbi	0x1b, 5	; 27
     800:	08 95       	ret
     802:	86 30       	cpi	r24, 0x06	; 6
     804:	91 05       	cpc	r25, r1
     806:	11 f4       	brne	.+4      	; 0x80c <STpinChange+0x4a>
     808:	de 98       	cbi	0x1b, 6	; 27
     80a:	08 95       	ret
     80c:	87 30       	cpi	r24, 0x07	; 7
     80e:	91 05       	cpc	r25, r1
     810:	11 f4       	brne	.+4      	; 0x816 <STpinChange+0x54>
     812:	df 98       	cbi	0x1b, 7	; 27
     814:	08 95       	ret
     816:	8a 30       	cpi	r24, 0x0A	; 10
     818:	91 05       	cpc	r25, r1
     81a:	11 f4       	brne	.+4      	; 0x820 <STpinChange+0x5e>
     81c:	c0 98       	cbi	0x18, 0	; 24
     81e:	08 95       	ret
     820:	8b 30       	cpi	r24, 0x0B	; 11
     822:	91 05       	cpc	r25, r1
     824:	11 f4       	brne	.+4      	; 0x82a <STpinChange+0x68>
     826:	c1 98       	cbi	0x18, 1	; 24
     828:	08 95       	ret
     82a:	8c 30       	cpi	r24, 0x0C	; 12
     82c:	91 05       	cpc	r25, r1
     82e:	11 f4       	brne	.+4      	; 0x834 <STpinChange+0x72>
     830:	c2 98       	cbi	0x18, 2	; 24
     832:	08 95       	ret
     834:	8d 30       	cpi	r24, 0x0D	; 13
     836:	91 05       	cpc	r25, r1
     838:	11 f4       	brne	.+4      	; 0x83e <STpinChange+0x7c>
     83a:	c3 98       	cbi	0x18, 3	; 24
     83c:	08 95       	ret
     83e:	8e 30       	cpi	r24, 0x0E	; 14
     840:	91 05       	cpc	r25, r1
     842:	11 f4       	brne	.+4      	; 0x848 <STpinChange+0x86>
     844:	c4 98       	cbi	0x18, 4	; 24
     846:	08 95       	ret
     848:	8f 30       	cpi	r24, 0x0F	; 15
     84a:	91 05       	cpc	r25, r1
     84c:	11 f4       	brne	.+4      	; 0x852 <STpinChange+0x90>
     84e:	c5 98       	cbi	0x18, 5	; 24
     850:	08 95       	ret
     852:	80 31       	cpi	r24, 0x10	; 16
     854:	91 05       	cpc	r25, r1
     856:	11 f4       	brne	.+4      	; 0x85c <STpinChange+0x9a>
     858:	c6 98       	cbi	0x18, 6	; 24
     85a:	08 95       	ret
     85c:	81 31       	cpi	r24, 0x11	; 17
     85e:	91 05       	cpc	r25, r1
     860:	11 f4       	brne	.+4      	; 0x866 <STpinChange+0xa4>
     862:	c7 98       	cbi	0x18, 7	; 24
     864:	08 95       	ret
     866:	84 31       	cpi	r24, 0x14	; 20
     868:	91 05       	cpc	r25, r1
     86a:	11 f4       	brne	.+4      	; 0x870 <STpinChange+0xae>
     86c:	a8 98       	cbi	0x15, 0	; 21
     86e:	08 95       	ret
     870:	85 31       	cpi	r24, 0x15	; 21
     872:	91 05       	cpc	r25, r1
     874:	11 f4       	brne	.+4      	; 0x87a <STpinChange+0xb8>
     876:	a9 98       	cbi	0x15, 1	; 21
     878:	08 95       	ret
     87a:	86 31       	cpi	r24, 0x16	; 22
     87c:	91 05       	cpc	r25, r1
     87e:	11 f4       	brne	.+4      	; 0x884 <STpinChange+0xc2>
     880:	aa 98       	cbi	0x15, 2	; 21
     882:	08 95       	ret
     884:	87 31       	cpi	r24, 0x17	; 23
     886:	91 05       	cpc	r25, r1
     888:	11 f4       	brne	.+4      	; 0x88e <STpinChange+0xcc>
     88a:	ab 98       	cbi	0x15, 3	; 21
     88c:	08 95       	ret
     88e:	88 31       	cpi	r24, 0x18	; 24
     890:	91 05       	cpc	r25, r1
     892:	11 f4       	brne	.+4      	; 0x898 <STpinChange+0xd6>
     894:	ac 98       	cbi	0x15, 4	; 21
     896:	08 95       	ret
     898:	89 31       	cpi	r24, 0x19	; 25
     89a:	91 05       	cpc	r25, r1
     89c:	11 f4       	brne	.+4      	; 0x8a2 <STpinChange+0xe0>
     89e:	ad 98       	cbi	0x15, 5	; 21
     8a0:	08 95       	ret
     8a2:	8a 31       	cpi	r24, 0x1A	; 26
     8a4:	91 05       	cpc	r25, r1
     8a6:	11 f4       	brne	.+4      	; 0x8ac <STpinChange+0xea>
     8a8:	ae 98       	cbi	0x15, 6	; 21
     8aa:	08 95       	ret
     8ac:	8b 31       	cpi	r24, 0x1B	; 27
     8ae:	91 05       	cpc	r25, r1
     8b0:	11 f4       	brne	.+4      	; 0x8b6 <STpinChange+0xf4>
     8b2:	af 98       	cbi	0x15, 7	; 21
     8b4:	08 95       	ret
     8b6:	8e 31       	cpi	r24, 0x1E	; 30
     8b8:	91 05       	cpc	r25, r1
     8ba:	11 f4       	brne	.+4      	; 0x8c0 <STpinChange+0xfe>
     8bc:	90 98       	cbi	0x12, 0	; 18
     8be:	08 95       	ret
     8c0:	8f 31       	cpi	r24, 0x1F	; 31
     8c2:	91 05       	cpc	r25, r1
     8c4:	11 f4       	brne	.+4      	; 0x8ca <STpinChange+0x108>
     8c6:	91 98       	cbi	0x12, 1	; 18
     8c8:	08 95       	ret
     8ca:	80 32       	cpi	r24, 0x20	; 32
     8cc:	91 05       	cpc	r25, r1
     8ce:	11 f4       	brne	.+4      	; 0x8d4 <STpinChange+0x112>
     8d0:	92 98       	cbi	0x12, 2	; 18
     8d2:	08 95       	ret
     8d4:	81 32       	cpi	r24, 0x21	; 33
     8d6:	91 05       	cpc	r25, r1
     8d8:	11 f4       	brne	.+4      	; 0x8de <STpinChange+0x11c>
     8da:	93 98       	cbi	0x12, 3	; 18
     8dc:	08 95       	ret
     8de:	82 32       	cpi	r24, 0x22	; 34
     8e0:	91 05       	cpc	r25, r1
     8e2:	11 f4       	brne	.+4      	; 0x8e8 <STpinChange+0x126>
     8e4:	94 98       	cbi	0x12, 4	; 18
     8e6:	08 95       	ret
     8e8:	83 32       	cpi	r24, 0x23	; 35
     8ea:	91 05       	cpc	r25, r1
     8ec:	11 f4       	brne	.+4      	; 0x8f2 <STpinChange+0x130>
     8ee:	95 98       	cbi	0x12, 5	; 18
     8f0:	08 95       	ret
     8f2:	84 32       	cpi	r24, 0x24	; 36
     8f4:	91 05       	cpc	r25, r1
     8f6:	11 f4       	brne	.+4      	; 0x8fc <STpinChange+0x13a>
     8f8:	96 98       	cbi	0x12, 6	; 18
     8fa:	08 95       	ret
     8fc:	85 97       	sbiw	r24, 0x25	; 37
     8fe:	09 f0       	breq	.+2      	; 0x902 <STpinChange+0x140>
     900:	9f c0       	rjmp	.+318    	; 0xa40 <STpinChange+0x27e>
     902:	97 98       	cbi	0x12, 7	; 18
     904:	08 95       	ret
     906:	00 97       	sbiw	r24, 0x00	; 0
     908:	11 f4       	brne	.+4      	; 0x90e <STpinChange+0x14c>
     90a:	d8 9a       	sbi	0x1b, 0	; 27
     90c:	08 95       	ret
     90e:	81 30       	cpi	r24, 0x01	; 1
     910:	91 05       	cpc	r25, r1
     912:	11 f4       	brne	.+4      	; 0x918 <STpinChange+0x156>
     914:	d9 9a       	sbi	0x1b, 1	; 27
     916:	08 95       	ret
     918:	82 30       	cpi	r24, 0x02	; 2
     91a:	91 05       	cpc	r25, r1
     91c:	11 f4       	brne	.+4      	; 0x922 <STpinChange+0x160>
     91e:	da 9a       	sbi	0x1b, 2	; 27
     920:	08 95       	ret
     922:	83 30       	cpi	r24, 0x03	; 3
     924:	91 05       	cpc	r25, r1
     926:	11 f4       	brne	.+4      	; 0x92c <STpinChange+0x16a>
     928:	db 9a       	sbi	0x1b, 3	; 27
     92a:	08 95       	ret
     92c:	84 30       	cpi	r24, 0x04	; 4
     92e:	91 05       	cpc	r25, r1
     930:	11 f4       	brne	.+4      	; 0x936 <STpinChange+0x174>
     932:	dc 9a       	sbi	0x1b, 4	; 27
     934:	08 95       	ret
     936:	85 30       	cpi	r24, 0x05	; 5
     938:	91 05       	cpc	r25, r1
     93a:	11 f4       	brne	.+4      	; 0x940 <STpinChange+0x17e>
     93c:	dd 9a       	sbi	0x1b, 5	; 27
     93e:	08 95       	ret
     940:	86 30       	cpi	r24, 0x06	; 6
     942:	91 05       	cpc	r25, r1
     944:	11 f4       	brne	.+4      	; 0x94a <STpinChange+0x188>
     946:	de 9a       	sbi	0x1b, 6	; 27
     948:	08 95       	ret
     94a:	87 30       	cpi	r24, 0x07	; 7
     94c:	91 05       	cpc	r25, r1
     94e:	11 f4       	brne	.+4      	; 0x954 <STpinChange+0x192>
     950:	df 9a       	sbi	0x1b, 7	; 27
     952:	08 95       	ret
     954:	8a 30       	cpi	r24, 0x0A	; 10
     956:	91 05       	cpc	r25, r1
     958:	11 f4       	brne	.+4      	; 0x95e <STpinChange+0x19c>
     95a:	c0 9a       	sbi	0x18, 0	; 24
     95c:	08 95       	ret
     95e:	8b 30       	cpi	r24, 0x0B	; 11
     960:	91 05       	cpc	r25, r1
     962:	11 f4       	brne	.+4      	; 0x968 <STpinChange+0x1a6>
     964:	c1 9a       	sbi	0x18, 1	; 24
     966:	08 95       	ret
     968:	8c 30       	cpi	r24, 0x0C	; 12
     96a:	91 05       	cpc	r25, r1
     96c:	11 f4       	brne	.+4      	; 0x972 <STpinChange+0x1b0>
     96e:	c2 9a       	sbi	0x18, 2	; 24
     970:	08 95       	ret
     972:	8d 30       	cpi	r24, 0x0D	; 13
     974:	91 05       	cpc	r25, r1
     976:	11 f4       	brne	.+4      	; 0x97c <STpinChange+0x1ba>
     978:	c3 9a       	sbi	0x18, 3	; 24
     97a:	08 95       	ret
     97c:	8e 30       	cpi	r24, 0x0E	; 14
     97e:	91 05       	cpc	r25, r1
     980:	11 f4       	brne	.+4      	; 0x986 <STpinChange+0x1c4>
     982:	c4 9a       	sbi	0x18, 4	; 24
     984:	08 95       	ret
     986:	8f 30       	cpi	r24, 0x0F	; 15
     988:	91 05       	cpc	r25, r1
     98a:	11 f4       	brne	.+4      	; 0x990 <STpinChange+0x1ce>
     98c:	c5 9a       	sbi	0x18, 5	; 24
     98e:	08 95       	ret
     990:	80 31       	cpi	r24, 0x10	; 16
     992:	91 05       	cpc	r25, r1
     994:	11 f4       	brne	.+4      	; 0x99a <STpinChange+0x1d8>
     996:	c6 9a       	sbi	0x18, 6	; 24
     998:	08 95       	ret
     99a:	81 31       	cpi	r24, 0x11	; 17
     99c:	91 05       	cpc	r25, r1
     99e:	11 f4       	brne	.+4      	; 0x9a4 <STpinChange+0x1e2>
     9a0:	c7 9a       	sbi	0x18, 7	; 24
     9a2:	08 95       	ret
     9a4:	84 31       	cpi	r24, 0x14	; 20
     9a6:	91 05       	cpc	r25, r1
     9a8:	11 f4       	brne	.+4      	; 0x9ae <STpinChange+0x1ec>
     9aa:	a8 9a       	sbi	0x15, 0	; 21
     9ac:	08 95       	ret
     9ae:	85 31       	cpi	r24, 0x15	; 21
     9b0:	91 05       	cpc	r25, r1
     9b2:	11 f4       	brne	.+4      	; 0x9b8 <STpinChange+0x1f6>
     9b4:	a9 9a       	sbi	0x15, 1	; 21
     9b6:	08 95       	ret
     9b8:	86 31       	cpi	r24, 0x16	; 22
     9ba:	91 05       	cpc	r25, r1
     9bc:	11 f4       	brne	.+4      	; 0x9c2 <STpinChange+0x200>
     9be:	aa 9a       	sbi	0x15, 2	; 21
     9c0:	08 95       	ret
     9c2:	87 31       	cpi	r24, 0x17	; 23
     9c4:	91 05       	cpc	r25, r1
     9c6:	11 f4       	brne	.+4      	; 0x9cc <STpinChange+0x20a>
     9c8:	ab 9a       	sbi	0x15, 3	; 21
     9ca:	08 95       	ret
     9cc:	88 31       	cpi	r24, 0x18	; 24
     9ce:	91 05       	cpc	r25, r1
     9d0:	11 f4       	brne	.+4      	; 0x9d6 <STpinChange+0x214>
     9d2:	ac 9a       	sbi	0x15, 4	; 21
     9d4:	08 95       	ret
     9d6:	89 31       	cpi	r24, 0x19	; 25
     9d8:	91 05       	cpc	r25, r1
     9da:	11 f4       	brne	.+4      	; 0x9e0 <STpinChange+0x21e>
     9dc:	ad 9a       	sbi	0x15, 5	; 21
     9de:	08 95       	ret
     9e0:	8a 31       	cpi	r24, 0x1A	; 26
     9e2:	91 05       	cpc	r25, r1
     9e4:	11 f4       	brne	.+4      	; 0x9ea <STpinChange+0x228>
     9e6:	ae 9a       	sbi	0x15, 6	; 21
     9e8:	08 95       	ret
     9ea:	8b 31       	cpi	r24, 0x1B	; 27
     9ec:	91 05       	cpc	r25, r1
     9ee:	11 f4       	brne	.+4      	; 0x9f4 <STpinChange+0x232>
     9f0:	af 9a       	sbi	0x15, 7	; 21
     9f2:	08 95       	ret
     9f4:	8e 31       	cpi	r24, 0x1E	; 30
     9f6:	91 05       	cpc	r25, r1
     9f8:	11 f4       	brne	.+4      	; 0x9fe <STpinChange+0x23c>
     9fa:	90 9a       	sbi	0x12, 0	; 18
     9fc:	08 95       	ret
     9fe:	8f 31       	cpi	r24, 0x1F	; 31
     a00:	91 05       	cpc	r25, r1
     a02:	11 f4       	brne	.+4      	; 0xa08 <STpinChange+0x246>
     a04:	91 9a       	sbi	0x12, 1	; 18
     a06:	08 95       	ret
     a08:	80 32       	cpi	r24, 0x20	; 32
     a0a:	91 05       	cpc	r25, r1
     a0c:	11 f4       	brne	.+4      	; 0xa12 <STpinChange+0x250>
     a0e:	92 9a       	sbi	0x12, 2	; 18
     a10:	08 95       	ret
     a12:	81 32       	cpi	r24, 0x21	; 33
     a14:	91 05       	cpc	r25, r1
     a16:	11 f4       	brne	.+4      	; 0xa1c <STpinChange+0x25a>
     a18:	93 9a       	sbi	0x12, 3	; 18
     a1a:	08 95       	ret
     a1c:	82 32       	cpi	r24, 0x22	; 34
     a1e:	91 05       	cpc	r25, r1
     a20:	11 f4       	brne	.+4      	; 0xa26 <STpinChange+0x264>
     a22:	94 9a       	sbi	0x12, 4	; 18
     a24:	08 95       	ret
     a26:	83 32       	cpi	r24, 0x23	; 35
     a28:	91 05       	cpc	r25, r1
     a2a:	11 f4       	brne	.+4      	; 0xa30 <STpinChange+0x26e>
     a2c:	95 9a       	sbi	0x12, 5	; 18
     a2e:	08 95       	ret
     a30:	84 32       	cpi	r24, 0x24	; 36
     a32:	91 05       	cpc	r25, r1
     a34:	11 f4       	brne	.+4      	; 0xa3a <STpinChange+0x278>
     a36:	96 9a       	sbi	0x12, 6	; 18
     a38:	08 95       	ret
     a3a:	85 97       	sbiw	r24, 0x25	; 37
     a3c:	09 f4       	brne	.+2      	; 0xa40 <STpinChange+0x27e>
     a3e:	97 9a       	sbi	0x12, 7	; 18
     a40:	08 95       	ret

00000a42 <steper_1step>:

void steper_1step(){ // to make a full 1 step with 2 phase
	STpinChange(ms1,0);        // ms1 = 0,ms2 = 0,ms3 = 0 from a9488 data sheet
     a42:	60 e0       	ldi	r22, 0x00	; 0
     a44:	70 e0       	ldi	r23, 0x00	; 0
     a46:	8a e0       	ldi	r24, 0x0A	; 10
     a48:	90 e0       	ldi	r25, 0x00	; 0
     a4a:	0e 94 e1 03 	call	0x7c2	; 0x7c2 <STpinChange>
	STpinChange(ms2,0);
     a4e:	60 e0       	ldi	r22, 0x00	; 0
     a50:	70 e0       	ldi	r23, 0x00	; 0
     a52:	8b e0       	ldi	r24, 0x0B	; 11
     a54:	90 e0       	ldi	r25, 0x00	; 0
     a56:	0e 94 e1 03 	call	0x7c2	; 0x7c2 <STpinChange>
	STpinChange(ms3,0);
     a5a:	60 e0       	ldi	r22, 0x00	; 0
     a5c:	70 e0       	ldi	r23, 0x00	; 0
     a5e:	8c e0       	ldi	r24, 0x0C	; 12
     a60:	90 e0       	ldi	r25, 0x00	; 0
     a62:	0e 94 e1 03 	call	0x7c2	; 0x7c2 <STpinChange>
     a66:	08 95       	ret

00000a68 <steper_Hstep>:
}
void steper_Hstep(){// to make a half 1 step with 1-2 phase ms1 = 1,ms2 = 0,ms3 = 0 from a9488 data sheet
	STpinChange(ms1,1);
     a68:	61 e0       	ldi	r22, 0x01	; 1
     a6a:	70 e0       	ldi	r23, 0x00	; 0
     a6c:	8a e0       	ldi	r24, 0x0A	; 10
     a6e:	90 e0       	ldi	r25, 0x00	; 0
     a70:	0e 94 e1 03 	call	0x7c2	; 0x7c2 <STpinChange>
	STpinChange(ms2,0);
     a74:	60 e0       	ldi	r22, 0x00	; 0
     a76:	70 e0       	ldi	r23, 0x00	; 0
     a78:	8b e0       	ldi	r24, 0x0B	; 11
     a7a:	90 e0       	ldi	r25, 0x00	; 0
     a7c:	0e 94 e1 03 	call	0x7c2	; 0x7c2 <STpinChange>
	STpinChange(ms3,0);
     a80:	60 e0       	ldi	r22, 0x00	; 0
     a82:	70 e0       	ldi	r23, 0x00	; 0
     a84:	8c e0       	ldi	r24, 0x0C	; 12
     a86:	90 e0       	ldi	r25, 0x00	; 0
     a88:	0e 94 e1 03 	call	0x7c2	; 0x7c2 <STpinChange>
     a8c:	08 95       	ret

00000a8e <steper_Qstep>:
}
void steper_Qstep(){// to make a Quarter 1 step with w1-2 phase ms1 = 0,ms2 = 1,ms3 = 0 from a9488 data sheet
	STpinChange(ms1,0);
     a8e:	60 e0       	ldi	r22, 0x00	; 0
     a90:	70 e0       	ldi	r23, 0x00	; 0
     a92:	8a e0       	ldi	r24, 0x0A	; 10
     a94:	90 e0       	ldi	r25, 0x00	; 0
     a96:	0e 94 e1 03 	call	0x7c2	; 0x7c2 <STpinChange>
	STpinChange(ms2,1);
     a9a:	61 e0       	ldi	r22, 0x01	; 1
     a9c:	70 e0       	ldi	r23, 0x00	; 0
     a9e:	8b e0       	ldi	r24, 0x0B	; 11
     aa0:	90 e0       	ldi	r25, 0x00	; 0
     aa2:	0e 94 e1 03 	call	0x7c2	; 0x7c2 <STpinChange>
	STpinChange(ms3,0);
     aa6:	60 e0       	ldi	r22, 0x00	; 0
     aa8:	70 e0       	ldi	r23, 0x00	; 0
     aaa:	8c e0       	ldi	r24, 0x0C	; 12
     aac:	90 e0       	ldi	r25, 0x00	; 0
     aae:	0e 94 e1 03 	call	0x7c2	; 0x7c2 <STpinChange>
     ab2:	08 95       	ret

00000ab4 <steper_Estep>:
}
void steper_Estep(){// to make a Eighth 1 step with 2w1-2 phase ms1 = 1,ms2 = 1,ms3 = 0 from a9488 data sheet
	STpinChange(ms1,1);
     ab4:	61 e0       	ldi	r22, 0x01	; 1
     ab6:	70 e0       	ldi	r23, 0x00	; 0
     ab8:	8a e0       	ldi	r24, 0x0A	; 10
     aba:	90 e0       	ldi	r25, 0x00	; 0
     abc:	0e 94 e1 03 	call	0x7c2	; 0x7c2 <STpinChange>
	STpinChange(ms2,1);
     ac0:	61 e0       	ldi	r22, 0x01	; 1
     ac2:	70 e0       	ldi	r23, 0x00	; 0
     ac4:	8b e0       	ldi	r24, 0x0B	; 11
     ac6:	90 e0       	ldi	r25, 0x00	; 0
     ac8:	0e 94 e1 03 	call	0x7c2	; 0x7c2 <STpinChange>
	STpinChange(ms3,0);
     acc:	60 e0       	ldi	r22, 0x00	; 0
     ace:	70 e0       	ldi	r23, 0x00	; 0
     ad0:	8c e0       	ldi	r24, 0x0C	; 12
     ad2:	90 e0       	ldi	r25, 0x00	; 0
     ad4:	0e 94 e1 03 	call	0x7c2	; 0x7c2 <STpinChange>
     ad8:	08 95       	ret

00000ada <steper_Sstep>:
}
void steper_Sstep(){// to make a Sixteenth 1 step with 4w1-2 phase ms1 = 1,ms2 = 1,ms3 = 0 from a9488 data sheet
	STpinChange(ms1,1);
     ada:	61 e0       	ldi	r22, 0x01	; 1
     adc:	70 e0       	ldi	r23, 0x00	; 0
     ade:	8a e0       	ldi	r24, 0x0A	; 10
     ae0:	90 e0       	ldi	r25, 0x00	; 0
     ae2:	0e 94 e1 03 	call	0x7c2	; 0x7c2 <STpinChange>
	STpinChange(ms2,1);
     ae6:	61 e0       	ldi	r22, 0x01	; 1
     ae8:	70 e0       	ldi	r23, 0x00	; 0
     aea:	8b e0       	ldi	r24, 0x0B	; 11
     aec:	90 e0       	ldi	r25, 0x00	; 0
     aee:	0e 94 e1 03 	call	0x7c2	; 0x7c2 <STpinChange>
	STpinChange(ms3,1);
     af2:	61 e0       	ldi	r22, 0x01	; 1
     af4:	70 e0       	ldi	r23, 0x00	; 0
     af6:	8c e0       	ldi	r24, 0x0C	; 12
     af8:	90 e0       	ldi	r25, 0x00	; 0
     afa:	0e 94 e1 03 	call	0x7c2	; 0x7c2 <STpinChange>
     afe:	08 95       	ret

00000b00 <StepperInit>:
}
//library interface description
void StepperInit(int steps,uint8_t sp)  //types of steps (1,2,6,8,16),speed of rotation in rpm
{
     b00:	cf 93       	push	r28
     b02:	c6 2f       	mov	r28, r22
	switch (steps){
     b04:	86 30       	cpi	r24, 0x06	; 6
     b06:	91 05       	cpc	r25, r1
     b08:	99 f0       	breq	.+38     	; 0xb30 <StepperInit+0x30>
     b0a:	34 f4       	brge	.+12     	; 0xb18 <StepperInit+0x18>
     b0c:	81 30       	cpi	r24, 0x01	; 1
     b0e:	91 05       	cpc	r25, r1
     b10:	49 f0       	breq	.+18     	; 0xb24 <StepperInit+0x24>
     b12:	02 97       	sbiw	r24, 0x02	; 2
     b14:	51 f0       	breq	.+20     	; 0xb2a <StepperInit+0x2a>
     b16:	14 c0       	rjmp	.+40     	; 0xb40 <StepperInit+0x40>
     b18:	88 30       	cpi	r24, 0x08	; 8
     b1a:	91 05       	cpc	r25, r1
     b1c:	61 f0       	breq	.+24     	; 0xb36 <StepperInit+0x36>
     b1e:	40 97       	sbiw	r24, 0x10	; 16
     b20:	69 f0       	breq	.+26     	; 0xb3c <StepperInit+0x3c>
     b22:	0e c0       	rjmp	.+28     	; 0xb40 <StepperInit+0x40>
		case 1:steper_1step();break;
     b24:	0e 94 21 05 	call	0xa42	; 0xa42 <steper_1step>
     b28:	0b c0       	rjmp	.+22     	; 0xb40 <StepperInit+0x40>
		case 2:steper_Hstep();break;
     b2a:	0e 94 34 05 	call	0xa68	; 0xa68 <steper_Hstep>
     b2e:	08 c0       	rjmp	.+16     	; 0xb40 <StepperInit+0x40>
		case 6:steper_Qstep();break;
     b30:	0e 94 47 05 	call	0xa8e	; 0xa8e <steper_Qstep>
     b34:	05 c0       	rjmp	.+10     	; 0xb40 <StepperInit+0x40>
		case 8:steper_Estep();break;
     b36:	0e 94 5a 05 	call	0xab4	; 0xab4 <steper_Estep>
     b3a:	02 c0       	rjmp	.+4      	; 0xb40 <StepperInit+0x40>
		case 16:steper_Sstep();break;
     b3c:	0e 94 6d 05 	call	0xada	; 0xada <steper_Sstep>
	}
	speed = sp;
     b40:	6c 2f       	mov	r22, r28
     b42:	70 e0       	ldi	r23, 0x00	; 0
     b44:	70 93 71 00 	sts	0x0071, r23
     b48:	60 93 70 00 	sts	0x0070, r22
}
     b4c:	cf 91       	pop	r28
     b4e:	08 95       	ret

00000b50 <__fixsfsi>:
     b50:	0e 94 af 05 	call	0xb5e	; 0xb5e <__fixunssfsi>
     b54:	68 94       	set
     b56:	b1 11       	cpse	r27, r1
     b58:	0c 94 3e 06 	jmp	0xc7c	; 0xc7c <__fp_szero>
     b5c:	08 95       	ret

00000b5e <__fixunssfsi>:
     b5e:	0e 94 23 06 	call	0xc46	; 0xc46 <__fp_splitA>
     b62:	88 f0       	brcs	.+34     	; 0xb86 <__fixunssfsi+0x28>
     b64:	9f 57       	subi	r25, 0x7F	; 127
     b66:	98 f0       	brcs	.+38     	; 0xb8e <__fixunssfsi+0x30>
     b68:	b9 2f       	mov	r27, r25
     b6a:	99 27       	eor	r25, r25
     b6c:	b7 51       	subi	r27, 0x17	; 23
     b6e:	b0 f0       	brcs	.+44     	; 0xb9c <__fixunssfsi+0x3e>
     b70:	e1 f0       	breq	.+56     	; 0xbaa <__fixunssfsi+0x4c>
     b72:	66 0f       	add	r22, r22
     b74:	77 1f       	adc	r23, r23
     b76:	88 1f       	adc	r24, r24
     b78:	99 1f       	adc	r25, r25
     b7a:	1a f0       	brmi	.+6      	; 0xb82 <__fixunssfsi+0x24>
     b7c:	ba 95       	dec	r27
     b7e:	c9 f7       	brne	.-14     	; 0xb72 <__fixunssfsi+0x14>
     b80:	14 c0       	rjmp	.+40     	; 0xbaa <__fixunssfsi+0x4c>
     b82:	b1 30       	cpi	r27, 0x01	; 1
     b84:	91 f0       	breq	.+36     	; 0xbaa <__fixunssfsi+0x4c>
     b86:	0e 94 3d 06 	call	0xc7a	; 0xc7a <__fp_zero>
     b8a:	b1 e0       	ldi	r27, 0x01	; 1
     b8c:	08 95       	ret
     b8e:	0c 94 3d 06 	jmp	0xc7a	; 0xc7a <__fp_zero>
     b92:	67 2f       	mov	r22, r23
     b94:	78 2f       	mov	r23, r24
     b96:	88 27       	eor	r24, r24
     b98:	b8 5f       	subi	r27, 0xF8	; 248
     b9a:	39 f0       	breq	.+14     	; 0xbaa <__fixunssfsi+0x4c>
     b9c:	b9 3f       	cpi	r27, 0xF9	; 249
     b9e:	cc f3       	brlt	.-14     	; 0xb92 <__fixunssfsi+0x34>
     ba0:	86 95       	lsr	r24
     ba2:	77 95       	ror	r23
     ba4:	67 95       	ror	r22
     ba6:	b3 95       	inc	r27
     ba8:	d9 f7       	brne	.-10     	; 0xba0 <__fixunssfsi+0x42>
     baa:	3e f4       	brtc	.+14     	; 0xbba <__fixunssfsi+0x5c>
     bac:	90 95       	com	r25
     bae:	80 95       	com	r24
     bb0:	70 95       	com	r23
     bb2:	61 95       	neg	r22
     bb4:	7f 4f       	sbci	r23, 0xFF	; 255
     bb6:	8f 4f       	sbci	r24, 0xFF	; 255
     bb8:	9f 4f       	sbci	r25, 0xFF	; 255
     bba:	08 95       	ret

00000bbc <__floatunsisf>:
     bbc:	e8 94       	clt
     bbe:	09 c0       	rjmp	.+18     	; 0xbd2 <__floatsisf+0x12>

00000bc0 <__floatsisf>:
     bc0:	97 fb       	bst	r25, 7
     bc2:	3e f4       	brtc	.+14     	; 0xbd2 <__floatsisf+0x12>
     bc4:	90 95       	com	r25
     bc6:	80 95       	com	r24
     bc8:	70 95       	com	r23
     bca:	61 95       	neg	r22
     bcc:	7f 4f       	sbci	r23, 0xFF	; 255
     bce:	8f 4f       	sbci	r24, 0xFF	; 255
     bd0:	9f 4f       	sbci	r25, 0xFF	; 255
     bd2:	99 23       	and	r25, r25
     bd4:	a9 f0       	breq	.+42     	; 0xc00 <__floatsisf+0x40>
     bd6:	f9 2f       	mov	r31, r25
     bd8:	96 e9       	ldi	r25, 0x96	; 150
     bda:	bb 27       	eor	r27, r27
     bdc:	93 95       	inc	r25
     bde:	f6 95       	lsr	r31
     be0:	87 95       	ror	r24
     be2:	77 95       	ror	r23
     be4:	67 95       	ror	r22
     be6:	b7 95       	ror	r27
     be8:	f1 11       	cpse	r31, r1
     bea:	f8 cf       	rjmp	.-16     	; 0xbdc <__floatsisf+0x1c>
     bec:	fa f4       	brpl	.+62     	; 0xc2c <__floatsisf+0x6c>
     bee:	bb 0f       	add	r27, r27
     bf0:	11 f4       	brne	.+4      	; 0xbf6 <__floatsisf+0x36>
     bf2:	60 ff       	sbrs	r22, 0
     bf4:	1b c0       	rjmp	.+54     	; 0xc2c <__floatsisf+0x6c>
     bf6:	6f 5f       	subi	r22, 0xFF	; 255
     bf8:	7f 4f       	sbci	r23, 0xFF	; 255
     bfa:	8f 4f       	sbci	r24, 0xFF	; 255
     bfc:	9f 4f       	sbci	r25, 0xFF	; 255
     bfe:	16 c0       	rjmp	.+44     	; 0xc2c <__floatsisf+0x6c>
     c00:	88 23       	and	r24, r24
     c02:	11 f0       	breq	.+4      	; 0xc08 <__floatsisf+0x48>
     c04:	96 e9       	ldi	r25, 0x96	; 150
     c06:	11 c0       	rjmp	.+34     	; 0xc2a <__floatsisf+0x6a>
     c08:	77 23       	and	r23, r23
     c0a:	21 f0       	breq	.+8      	; 0xc14 <__floatsisf+0x54>
     c0c:	9e e8       	ldi	r25, 0x8E	; 142
     c0e:	87 2f       	mov	r24, r23
     c10:	76 2f       	mov	r23, r22
     c12:	05 c0       	rjmp	.+10     	; 0xc1e <__floatsisf+0x5e>
     c14:	66 23       	and	r22, r22
     c16:	71 f0       	breq	.+28     	; 0xc34 <__floatsisf+0x74>
     c18:	96 e8       	ldi	r25, 0x86	; 134
     c1a:	86 2f       	mov	r24, r22
     c1c:	70 e0       	ldi	r23, 0x00	; 0
     c1e:	60 e0       	ldi	r22, 0x00	; 0
     c20:	2a f0       	brmi	.+10     	; 0xc2c <__floatsisf+0x6c>
     c22:	9a 95       	dec	r25
     c24:	66 0f       	add	r22, r22
     c26:	77 1f       	adc	r23, r23
     c28:	88 1f       	adc	r24, r24
     c2a:	da f7       	brpl	.-10     	; 0xc22 <__floatsisf+0x62>
     c2c:	88 0f       	add	r24, r24
     c2e:	96 95       	lsr	r25
     c30:	87 95       	ror	r24
     c32:	97 f9       	bld	r25, 7
     c34:	08 95       	ret

00000c36 <__fp_split3>:
     c36:	57 fd       	sbrc	r21, 7
     c38:	90 58       	subi	r25, 0x80	; 128
     c3a:	44 0f       	add	r20, r20
     c3c:	55 1f       	adc	r21, r21
     c3e:	59 f0       	breq	.+22     	; 0xc56 <__fp_splitA+0x10>
     c40:	5f 3f       	cpi	r21, 0xFF	; 255
     c42:	71 f0       	breq	.+28     	; 0xc60 <__fp_splitA+0x1a>
     c44:	47 95       	ror	r20

00000c46 <__fp_splitA>:
     c46:	88 0f       	add	r24, r24
     c48:	97 fb       	bst	r25, 7
     c4a:	99 1f       	adc	r25, r25
     c4c:	61 f0       	breq	.+24     	; 0xc66 <__fp_splitA+0x20>
     c4e:	9f 3f       	cpi	r25, 0xFF	; 255
     c50:	79 f0       	breq	.+30     	; 0xc70 <__fp_splitA+0x2a>
     c52:	87 95       	ror	r24
     c54:	08 95       	ret
     c56:	12 16       	cp	r1, r18
     c58:	13 06       	cpc	r1, r19
     c5a:	14 06       	cpc	r1, r20
     c5c:	55 1f       	adc	r21, r21
     c5e:	f2 cf       	rjmp	.-28     	; 0xc44 <__fp_split3+0xe>
     c60:	46 95       	lsr	r20
     c62:	f1 df       	rcall	.-30     	; 0xc46 <__fp_splitA>
     c64:	08 c0       	rjmp	.+16     	; 0xc76 <__fp_splitA+0x30>
     c66:	16 16       	cp	r1, r22
     c68:	17 06       	cpc	r1, r23
     c6a:	18 06       	cpc	r1, r24
     c6c:	99 1f       	adc	r25, r25
     c6e:	f1 cf       	rjmp	.-30     	; 0xc52 <__fp_splitA+0xc>
     c70:	86 95       	lsr	r24
     c72:	71 05       	cpc	r23, r1
     c74:	61 05       	cpc	r22, r1
     c76:	08 94       	sec
     c78:	08 95       	ret

00000c7a <__fp_zero>:
     c7a:	e8 94       	clt

00000c7c <__fp_szero>:
     c7c:	bb 27       	eor	r27, r27
     c7e:	66 27       	eor	r22, r22
     c80:	77 27       	eor	r23, r23
     c82:	cb 01       	movw	r24, r22
     c84:	97 f9       	bld	r25, 7
     c86:	08 95       	ret

00000c88 <__gesf2>:
     c88:	0e 94 b6 06 	call	0xd6c	; 0xd6c <__fp_cmp>
     c8c:	08 f4       	brcc	.+2      	; 0xc90 <__gesf2+0x8>
     c8e:	8f ef       	ldi	r24, 0xFF	; 255
     c90:	08 95       	ret

00000c92 <__mulsf3>:
     c92:	0e 94 5c 06 	call	0xcb8	; 0xcb8 <__mulsf3x>
     c96:	0c 94 f1 06 	jmp	0xde2	; 0xde2 <__fp_round>
     c9a:	0e 94 e3 06 	call	0xdc6	; 0xdc6 <__fp_pscA>
     c9e:	38 f0       	brcs	.+14     	; 0xcae <__mulsf3+0x1c>
     ca0:	0e 94 ea 06 	call	0xdd4	; 0xdd4 <__fp_pscB>
     ca4:	20 f0       	brcs	.+8      	; 0xcae <__mulsf3+0x1c>
     ca6:	95 23       	and	r25, r21
     ca8:	11 f0       	breq	.+4      	; 0xcae <__mulsf3+0x1c>
     caa:	0c 94 da 06 	jmp	0xdb4	; 0xdb4 <__fp_inf>
     cae:	0c 94 e0 06 	jmp	0xdc0	; 0xdc0 <__fp_nan>
     cb2:	11 24       	eor	r1, r1
     cb4:	0c 94 3e 06 	jmp	0xc7c	; 0xc7c <__fp_szero>

00000cb8 <__mulsf3x>:
     cb8:	0e 94 1b 06 	call	0xc36	; 0xc36 <__fp_split3>
     cbc:	70 f3       	brcs	.-36     	; 0xc9a <__mulsf3+0x8>

00000cbe <__mulsf3_pse>:
     cbe:	95 9f       	mul	r25, r21
     cc0:	c1 f3       	breq	.-16     	; 0xcb2 <__mulsf3+0x20>
     cc2:	95 0f       	add	r25, r21
     cc4:	50 e0       	ldi	r21, 0x00	; 0
     cc6:	55 1f       	adc	r21, r21
     cc8:	62 9f       	mul	r22, r18
     cca:	f0 01       	movw	r30, r0
     ccc:	72 9f       	mul	r23, r18
     cce:	bb 27       	eor	r27, r27
     cd0:	f0 0d       	add	r31, r0
     cd2:	b1 1d       	adc	r27, r1
     cd4:	63 9f       	mul	r22, r19
     cd6:	aa 27       	eor	r26, r26
     cd8:	f0 0d       	add	r31, r0
     cda:	b1 1d       	adc	r27, r1
     cdc:	aa 1f       	adc	r26, r26
     cde:	64 9f       	mul	r22, r20
     ce0:	66 27       	eor	r22, r22
     ce2:	b0 0d       	add	r27, r0
     ce4:	a1 1d       	adc	r26, r1
     ce6:	66 1f       	adc	r22, r22
     ce8:	82 9f       	mul	r24, r18
     cea:	22 27       	eor	r18, r18
     cec:	b0 0d       	add	r27, r0
     cee:	a1 1d       	adc	r26, r1
     cf0:	62 1f       	adc	r22, r18
     cf2:	73 9f       	mul	r23, r19
     cf4:	b0 0d       	add	r27, r0
     cf6:	a1 1d       	adc	r26, r1
     cf8:	62 1f       	adc	r22, r18
     cfa:	83 9f       	mul	r24, r19
     cfc:	a0 0d       	add	r26, r0
     cfe:	61 1d       	adc	r22, r1
     d00:	22 1f       	adc	r18, r18
     d02:	74 9f       	mul	r23, r20
     d04:	33 27       	eor	r19, r19
     d06:	a0 0d       	add	r26, r0
     d08:	61 1d       	adc	r22, r1
     d0a:	23 1f       	adc	r18, r19
     d0c:	84 9f       	mul	r24, r20
     d0e:	60 0d       	add	r22, r0
     d10:	21 1d       	adc	r18, r1
     d12:	82 2f       	mov	r24, r18
     d14:	76 2f       	mov	r23, r22
     d16:	6a 2f       	mov	r22, r26
     d18:	11 24       	eor	r1, r1
     d1a:	9f 57       	subi	r25, 0x7F	; 127
     d1c:	50 40       	sbci	r21, 0x00	; 0
     d1e:	9a f0       	brmi	.+38     	; 0xd46 <__mulsf3_pse+0x88>
     d20:	f1 f0       	breq	.+60     	; 0xd5e <__mulsf3_pse+0xa0>
     d22:	88 23       	and	r24, r24
     d24:	4a f0       	brmi	.+18     	; 0xd38 <__mulsf3_pse+0x7a>
     d26:	ee 0f       	add	r30, r30
     d28:	ff 1f       	adc	r31, r31
     d2a:	bb 1f       	adc	r27, r27
     d2c:	66 1f       	adc	r22, r22
     d2e:	77 1f       	adc	r23, r23
     d30:	88 1f       	adc	r24, r24
     d32:	91 50       	subi	r25, 0x01	; 1
     d34:	50 40       	sbci	r21, 0x00	; 0
     d36:	a9 f7       	brne	.-22     	; 0xd22 <__mulsf3_pse+0x64>
     d38:	9e 3f       	cpi	r25, 0xFE	; 254
     d3a:	51 05       	cpc	r21, r1
     d3c:	80 f0       	brcs	.+32     	; 0xd5e <__mulsf3_pse+0xa0>
     d3e:	0c 94 da 06 	jmp	0xdb4	; 0xdb4 <__fp_inf>
     d42:	0c 94 3e 06 	jmp	0xc7c	; 0xc7c <__fp_szero>
     d46:	5f 3f       	cpi	r21, 0xFF	; 255
     d48:	e4 f3       	brlt	.-8      	; 0xd42 <__mulsf3_pse+0x84>
     d4a:	98 3e       	cpi	r25, 0xE8	; 232
     d4c:	d4 f3       	brlt	.-12     	; 0xd42 <__mulsf3_pse+0x84>
     d4e:	86 95       	lsr	r24
     d50:	77 95       	ror	r23
     d52:	67 95       	ror	r22
     d54:	b7 95       	ror	r27
     d56:	f7 95       	ror	r31
     d58:	e7 95       	ror	r30
     d5a:	9f 5f       	subi	r25, 0xFF	; 255
     d5c:	c1 f7       	brne	.-16     	; 0xd4e <__mulsf3_pse+0x90>
     d5e:	fe 2b       	or	r31, r30
     d60:	88 0f       	add	r24, r24
     d62:	91 1d       	adc	r25, r1
     d64:	96 95       	lsr	r25
     d66:	87 95       	ror	r24
     d68:	97 f9       	bld	r25, 7
     d6a:	08 95       	ret

00000d6c <__fp_cmp>:
     d6c:	99 0f       	add	r25, r25
     d6e:	00 08       	sbc	r0, r0
     d70:	55 0f       	add	r21, r21
     d72:	aa 0b       	sbc	r26, r26
     d74:	e0 e8       	ldi	r30, 0x80	; 128
     d76:	fe ef       	ldi	r31, 0xFE	; 254
     d78:	16 16       	cp	r1, r22
     d7a:	17 06       	cpc	r1, r23
     d7c:	e8 07       	cpc	r30, r24
     d7e:	f9 07       	cpc	r31, r25
     d80:	c0 f0       	brcs	.+48     	; 0xdb2 <__fp_cmp+0x46>
     d82:	12 16       	cp	r1, r18
     d84:	13 06       	cpc	r1, r19
     d86:	e4 07       	cpc	r30, r20
     d88:	f5 07       	cpc	r31, r21
     d8a:	98 f0       	brcs	.+38     	; 0xdb2 <__fp_cmp+0x46>
     d8c:	62 1b       	sub	r22, r18
     d8e:	73 0b       	sbc	r23, r19
     d90:	84 0b       	sbc	r24, r20
     d92:	95 0b       	sbc	r25, r21
     d94:	39 f4       	brne	.+14     	; 0xda4 <__fp_cmp+0x38>
     d96:	0a 26       	eor	r0, r26
     d98:	61 f0       	breq	.+24     	; 0xdb2 <__fp_cmp+0x46>
     d9a:	23 2b       	or	r18, r19
     d9c:	24 2b       	or	r18, r20
     d9e:	25 2b       	or	r18, r21
     da0:	21 f4       	brne	.+8      	; 0xdaa <__fp_cmp+0x3e>
     da2:	08 95       	ret
     da4:	0a 26       	eor	r0, r26
     da6:	09 f4       	brne	.+2      	; 0xdaa <__fp_cmp+0x3e>
     da8:	a1 40       	sbci	r26, 0x01	; 1
     daa:	a6 95       	lsr	r26
     dac:	8f ef       	ldi	r24, 0xFF	; 255
     dae:	81 1d       	adc	r24, r1
     db0:	81 1d       	adc	r24, r1
     db2:	08 95       	ret

00000db4 <__fp_inf>:
     db4:	97 f9       	bld	r25, 7
     db6:	9f 67       	ori	r25, 0x7F	; 127
     db8:	80 e8       	ldi	r24, 0x80	; 128
     dba:	70 e0       	ldi	r23, 0x00	; 0
     dbc:	60 e0       	ldi	r22, 0x00	; 0
     dbe:	08 95       	ret

00000dc0 <__fp_nan>:
     dc0:	9f ef       	ldi	r25, 0xFF	; 255
     dc2:	80 ec       	ldi	r24, 0xC0	; 192
     dc4:	08 95       	ret

00000dc6 <__fp_pscA>:
     dc6:	00 24       	eor	r0, r0
     dc8:	0a 94       	dec	r0
     dca:	16 16       	cp	r1, r22
     dcc:	17 06       	cpc	r1, r23
     dce:	18 06       	cpc	r1, r24
     dd0:	09 06       	cpc	r0, r25
     dd2:	08 95       	ret

00000dd4 <__fp_pscB>:
     dd4:	00 24       	eor	r0, r0
     dd6:	0a 94       	dec	r0
     dd8:	12 16       	cp	r1, r18
     dda:	13 06       	cpc	r1, r19
     ddc:	14 06       	cpc	r1, r20
     dde:	05 06       	cpc	r0, r21
     de0:	08 95       	ret

00000de2 <__fp_round>:
     de2:	09 2e       	mov	r0, r25
     de4:	03 94       	inc	r0
     de6:	00 0c       	add	r0, r0
     de8:	11 f4       	brne	.+4      	; 0xdee <__fp_round+0xc>
     dea:	88 23       	and	r24, r24
     dec:	52 f0       	brmi	.+20     	; 0xe02 <__fp_round+0x20>
     dee:	bb 0f       	add	r27, r27
     df0:	40 f4       	brcc	.+16     	; 0xe02 <__fp_round+0x20>
     df2:	bf 2b       	or	r27, r31
     df4:	11 f4       	brne	.+4      	; 0xdfa <__fp_round+0x18>
     df6:	60 ff       	sbrs	r22, 0
     df8:	04 c0       	rjmp	.+8      	; 0xe02 <__fp_round+0x20>
     dfa:	6f 5f       	subi	r22, 0xFF	; 255
     dfc:	7f 4f       	sbci	r23, 0xFF	; 255
     dfe:	8f 4f       	sbci	r24, 0xFF	; 255
     e00:	9f 4f       	sbci	r25, 0xFF	; 255
     e02:	08 95       	ret

00000e04 <vfprintf>:
     e04:	a3 e1       	ldi	r26, 0x13	; 19
     e06:	b0 e0       	ldi	r27, 0x00	; 0
     e08:	e8 e0       	ldi	r30, 0x08	; 8
     e0a:	f7 e0       	ldi	r31, 0x07	; 7
     e0c:	0c 94 7e 0a 	jmp	0x14fc	; 0x14fc <__prologue_saves__>
     e10:	6c 01       	movw	r12, r24
     e12:	4b 01       	movw	r8, r22
     e14:	2a 01       	movw	r4, r20
     e16:	fc 01       	movw	r30, r24
     e18:	17 82       	std	Z+7, r1	; 0x07
     e1a:	16 82       	std	Z+6, r1	; 0x06
     e1c:	83 81       	ldd	r24, Z+3	; 0x03
     e1e:	81 ff       	sbrs	r24, 1
     e20:	43 c3       	rjmp	.+1670   	; 0x14a8 <vfprintf+0x6a4>
     e22:	ae 01       	movw	r20, r28
     e24:	4f 5f       	subi	r20, 0xFF	; 255
     e26:	5f 4f       	sbci	r21, 0xFF	; 255
     e28:	3a 01       	movw	r6, r20
     e2a:	f6 01       	movw	r30, r12
     e2c:	93 81       	ldd	r25, Z+3	; 0x03
     e2e:	f4 01       	movw	r30, r8
     e30:	93 fd       	sbrc	r25, 3
     e32:	85 91       	lpm	r24, Z+
     e34:	93 ff       	sbrs	r25, 3
     e36:	81 91       	ld	r24, Z+
     e38:	4f 01       	movw	r8, r30
     e3a:	88 23       	and	r24, r24
     e3c:	09 f4       	brne	.+2      	; 0xe40 <vfprintf+0x3c>
     e3e:	30 c3       	rjmp	.+1632   	; 0x14a0 <vfprintf+0x69c>
     e40:	85 32       	cpi	r24, 0x25	; 37
     e42:	39 f4       	brne	.+14     	; 0xe52 <vfprintf+0x4e>
     e44:	93 fd       	sbrc	r25, 3
     e46:	85 91       	lpm	r24, Z+
     e48:	93 ff       	sbrs	r25, 3
     e4a:	81 91       	ld	r24, Z+
     e4c:	4f 01       	movw	r8, r30
     e4e:	85 32       	cpi	r24, 0x25	; 37
     e50:	39 f4       	brne	.+14     	; 0xe60 <vfprintf+0x5c>
     e52:	b6 01       	movw	r22, r12
     e54:	90 e0       	ldi	r25, 0x00	; 0
     e56:	0e 94 e8 0b 	call	0x17d0	; 0x17d0 <fputc>
     e5a:	52 01       	movw	r10, r4
     e5c:	25 01       	movw	r4, r10
     e5e:	e5 cf       	rjmp	.-54     	; 0xe2a <vfprintf+0x26>
     e60:	10 e0       	ldi	r17, 0x00	; 0
     e62:	f1 2c       	mov	r15, r1
     e64:	20 e0       	ldi	r18, 0x00	; 0
     e66:	20 32       	cpi	r18, 0x20	; 32
     e68:	a0 f4       	brcc	.+40     	; 0xe92 <vfprintf+0x8e>
     e6a:	8b 32       	cpi	r24, 0x2B	; 43
     e6c:	69 f0       	breq	.+26     	; 0xe88 <vfprintf+0x84>
     e6e:	30 f4       	brcc	.+12     	; 0xe7c <vfprintf+0x78>
     e70:	80 32       	cpi	r24, 0x20	; 32
     e72:	59 f0       	breq	.+22     	; 0xe8a <vfprintf+0x86>
     e74:	83 32       	cpi	r24, 0x23	; 35
     e76:	69 f4       	brne	.+26     	; 0xe92 <vfprintf+0x8e>
     e78:	20 61       	ori	r18, 0x10	; 16
     e7a:	2c c0       	rjmp	.+88     	; 0xed4 <vfprintf+0xd0>
     e7c:	8d 32       	cpi	r24, 0x2D	; 45
     e7e:	39 f0       	breq	.+14     	; 0xe8e <vfprintf+0x8a>
     e80:	80 33       	cpi	r24, 0x30	; 48
     e82:	39 f4       	brne	.+14     	; 0xe92 <vfprintf+0x8e>
     e84:	21 60       	ori	r18, 0x01	; 1
     e86:	26 c0       	rjmp	.+76     	; 0xed4 <vfprintf+0xd0>
     e88:	22 60       	ori	r18, 0x02	; 2
     e8a:	24 60       	ori	r18, 0x04	; 4
     e8c:	23 c0       	rjmp	.+70     	; 0xed4 <vfprintf+0xd0>
     e8e:	28 60       	ori	r18, 0x08	; 8
     e90:	21 c0       	rjmp	.+66     	; 0xed4 <vfprintf+0xd0>
     e92:	27 fd       	sbrc	r18, 7
     e94:	27 c0       	rjmp	.+78     	; 0xee4 <vfprintf+0xe0>
     e96:	30 ed       	ldi	r19, 0xD0	; 208
     e98:	38 0f       	add	r19, r24
     e9a:	3a 30       	cpi	r19, 0x0A	; 10
     e9c:	78 f4       	brcc	.+30     	; 0xebc <vfprintf+0xb8>
     e9e:	26 ff       	sbrs	r18, 6
     ea0:	06 c0       	rjmp	.+12     	; 0xeae <vfprintf+0xaa>
     ea2:	fa e0       	ldi	r31, 0x0A	; 10
     ea4:	1f 9f       	mul	r17, r31
     ea6:	30 0d       	add	r19, r0
     ea8:	11 24       	eor	r1, r1
     eaa:	13 2f       	mov	r17, r19
     eac:	13 c0       	rjmp	.+38     	; 0xed4 <vfprintf+0xd0>
     eae:	4a e0       	ldi	r20, 0x0A	; 10
     eb0:	f4 9e       	mul	r15, r20
     eb2:	30 0d       	add	r19, r0
     eb4:	11 24       	eor	r1, r1
     eb6:	f3 2e       	mov	r15, r19
     eb8:	20 62       	ori	r18, 0x20	; 32
     eba:	0c c0       	rjmp	.+24     	; 0xed4 <vfprintf+0xd0>
     ebc:	8e 32       	cpi	r24, 0x2E	; 46
     ebe:	21 f4       	brne	.+8      	; 0xec8 <vfprintf+0xc4>
     ec0:	26 fd       	sbrc	r18, 6
     ec2:	ee c2       	rjmp	.+1500   	; 0x14a0 <vfprintf+0x69c>
     ec4:	20 64       	ori	r18, 0x40	; 64
     ec6:	06 c0       	rjmp	.+12     	; 0xed4 <vfprintf+0xd0>
     ec8:	8c 36       	cpi	r24, 0x6C	; 108
     eca:	11 f4       	brne	.+4      	; 0xed0 <vfprintf+0xcc>
     ecc:	20 68       	ori	r18, 0x80	; 128
     ece:	02 c0       	rjmp	.+4      	; 0xed4 <vfprintf+0xd0>
     ed0:	88 36       	cpi	r24, 0x68	; 104
     ed2:	41 f4       	brne	.+16     	; 0xee4 <vfprintf+0xe0>
     ed4:	f4 01       	movw	r30, r8
     ed6:	93 fd       	sbrc	r25, 3
     ed8:	85 91       	lpm	r24, Z+
     eda:	93 ff       	sbrs	r25, 3
     edc:	81 91       	ld	r24, Z+
     ede:	4f 01       	movw	r8, r30
     ee0:	81 11       	cpse	r24, r1
     ee2:	c1 cf       	rjmp	.-126    	; 0xe66 <vfprintf+0x62>
     ee4:	9b eb       	ldi	r25, 0xBB	; 187
     ee6:	98 0f       	add	r25, r24
     ee8:	93 30       	cpi	r25, 0x03	; 3
     eea:	18 f4       	brcc	.+6      	; 0xef2 <vfprintf+0xee>
     eec:	20 61       	ori	r18, 0x10	; 16
     eee:	80 5e       	subi	r24, 0xE0	; 224
     ef0:	06 c0       	rjmp	.+12     	; 0xefe <vfprintf+0xfa>
     ef2:	9b e9       	ldi	r25, 0x9B	; 155
     ef4:	98 0f       	add	r25, r24
     ef6:	93 30       	cpi	r25, 0x03	; 3
     ef8:	08 f0       	brcs	.+2      	; 0xefc <vfprintf+0xf8>
     efa:	71 c1       	rjmp	.+738    	; 0x11de <vfprintf+0x3da>
     efc:	2f 7e       	andi	r18, 0xEF	; 239
     efe:	26 ff       	sbrs	r18, 6
     f00:	16 e0       	ldi	r17, 0x06	; 6
     f02:	2f 73       	andi	r18, 0x3F	; 63
     f04:	32 2e       	mov	r3, r18
     f06:	85 36       	cpi	r24, 0x65	; 101
     f08:	19 f4       	brne	.+6      	; 0xf10 <vfprintf+0x10c>
     f0a:	20 64       	ori	r18, 0x40	; 64
     f0c:	32 2e       	mov	r3, r18
     f0e:	08 c0       	rjmp	.+16     	; 0xf20 <vfprintf+0x11c>
     f10:	86 36       	cpi	r24, 0x66	; 102
     f12:	21 f4       	brne	.+8      	; 0xf1c <vfprintf+0x118>
     f14:	f2 2f       	mov	r31, r18
     f16:	f0 68       	ori	r31, 0x80	; 128
     f18:	3f 2e       	mov	r3, r31
     f1a:	02 c0       	rjmp	.+4      	; 0xf20 <vfprintf+0x11c>
     f1c:	11 11       	cpse	r17, r1
     f1e:	11 50       	subi	r17, 0x01	; 1
     f20:	37 fe       	sbrs	r3, 7
     f22:	07 c0       	rjmp	.+14     	; 0xf32 <vfprintf+0x12e>
     f24:	1c 33       	cpi	r17, 0x3C	; 60
     f26:	50 f4       	brcc	.+20     	; 0xf3c <vfprintf+0x138>
     f28:	ee 24       	eor	r14, r14
     f2a:	e3 94       	inc	r14
     f2c:	e1 0e       	add	r14, r17
     f2e:	27 e0       	ldi	r18, 0x07	; 7
     f30:	0b c0       	rjmp	.+22     	; 0xf48 <vfprintf+0x144>
     f32:	18 30       	cpi	r17, 0x08	; 8
     f34:	38 f0       	brcs	.+14     	; 0xf44 <vfprintf+0x140>
     f36:	27 e0       	ldi	r18, 0x07	; 7
     f38:	17 e0       	ldi	r17, 0x07	; 7
     f3a:	05 c0       	rjmp	.+10     	; 0xf46 <vfprintf+0x142>
     f3c:	27 e0       	ldi	r18, 0x07	; 7
     f3e:	4c e3       	ldi	r20, 0x3C	; 60
     f40:	e4 2e       	mov	r14, r20
     f42:	02 c0       	rjmp	.+4      	; 0xf48 <vfprintf+0x144>
     f44:	21 2f       	mov	r18, r17
     f46:	e1 2c       	mov	r14, r1
     f48:	52 01       	movw	r10, r4
     f4a:	44 e0       	ldi	r20, 0x04	; 4
     f4c:	a4 0e       	add	r10, r20
     f4e:	b1 1c       	adc	r11, r1
     f50:	f2 01       	movw	r30, r4
     f52:	60 81       	ld	r22, Z
     f54:	71 81       	ldd	r23, Z+1	; 0x01
     f56:	82 81       	ldd	r24, Z+2	; 0x02
     f58:	93 81       	ldd	r25, Z+3	; 0x03
     f5a:	0e 2d       	mov	r16, r14
     f5c:	a3 01       	movw	r20, r6
     f5e:	0e 94 d5 0a 	call	0x15aa	; 0x15aa <__ftoa_engine>
     f62:	2c 01       	movw	r4, r24
     f64:	09 81       	ldd	r16, Y+1	; 0x01
     f66:	00 ff       	sbrs	r16, 0
     f68:	02 c0       	rjmp	.+4      	; 0xf6e <vfprintf+0x16a>
     f6a:	03 ff       	sbrs	r16, 3
     f6c:	07 c0       	rjmp	.+14     	; 0xf7c <vfprintf+0x178>
     f6e:	31 fc       	sbrc	r3, 1
     f70:	08 c0       	rjmp	.+16     	; 0xf82 <vfprintf+0x17e>
     f72:	32 fe       	sbrs	r3, 2
     f74:	09 c0       	rjmp	.+18     	; 0xf88 <vfprintf+0x184>
     f76:	30 e2       	ldi	r19, 0x20	; 32
     f78:	23 2e       	mov	r2, r19
     f7a:	07 c0       	rjmp	.+14     	; 0xf8a <vfprintf+0x186>
     f7c:	2d e2       	ldi	r18, 0x2D	; 45
     f7e:	22 2e       	mov	r2, r18
     f80:	04 c0       	rjmp	.+8      	; 0xf8a <vfprintf+0x186>
     f82:	9b e2       	ldi	r25, 0x2B	; 43
     f84:	29 2e       	mov	r2, r25
     f86:	01 c0       	rjmp	.+2      	; 0xf8a <vfprintf+0x186>
     f88:	21 2c       	mov	r2, r1
     f8a:	80 2f       	mov	r24, r16
     f8c:	8c 70       	andi	r24, 0x0C	; 12
     f8e:	19 f0       	breq	.+6      	; 0xf96 <vfprintf+0x192>
     f90:	21 10       	cpse	r2, r1
     f92:	68 c2       	rjmp	.+1232   	; 0x1464 <vfprintf+0x660>
     f94:	a8 c2       	rjmp	.+1360   	; 0x14e6 <vfprintf+0x6e2>
     f96:	37 fe       	sbrs	r3, 7
     f98:	0f c0       	rjmp	.+30     	; 0xfb8 <vfprintf+0x1b4>
     f9a:	e4 0c       	add	r14, r4
     f9c:	04 ff       	sbrs	r16, 4
     f9e:	04 c0       	rjmp	.+8      	; 0xfa8 <vfprintf+0x1a4>
     fa0:	8a 81       	ldd	r24, Y+2	; 0x02
     fa2:	81 33       	cpi	r24, 0x31	; 49
     fa4:	09 f4       	brne	.+2      	; 0xfa8 <vfprintf+0x1a4>
     fa6:	ea 94       	dec	r14
     fa8:	1e 14       	cp	r1, r14
     faa:	74 f5       	brge	.+92     	; 0x1008 <vfprintf+0x204>
     fac:	f8 e0       	ldi	r31, 0x08	; 8
     fae:	fe 15       	cp	r31, r14
     fb0:	78 f5       	brcc	.+94     	; 0x1010 <vfprintf+0x20c>
     fb2:	88 e0       	ldi	r24, 0x08	; 8
     fb4:	e8 2e       	mov	r14, r24
     fb6:	2c c0       	rjmp	.+88     	; 0x1010 <vfprintf+0x20c>
     fb8:	36 fc       	sbrc	r3, 6
     fba:	2a c0       	rjmp	.+84     	; 0x1010 <vfprintf+0x20c>
     fbc:	81 2f       	mov	r24, r17
     fbe:	90 e0       	ldi	r25, 0x00	; 0
     fc0:	84 15       	cp	r24, r4
     fc2:	95 05       	cpc	r25, r5
     fc4:	9c f0       	brlt	.+38     	; 0xfec <vfprintf+0x1e8>
     fc6:	2c ef       	ldi	r18, 0xFC	; 252
     fc8:	42 16       	cp	r4, r18
     fca:	2f ef       	ldi	r18, 0xFF	; 255
     fcc:	52 06       	cpc	r5, r18
     fce:	74 f0       	brlt	.+28     	; 0xfec <vfprintf+0x1e8>
     fd0:	43 2d       	mov	r20, r3
     fd2:	40 68       	ori	r20, 0x80	; 128
     fd4:	34 2e       	mov	r3, r20
     fd6:	0a c0       	rjmp	.+20     	; 0xfec <vfprintf+0x1e8>
     fd8:	e2 e0       	ldi	r30, 0x02	; 2
     fda:	f0 e0       	ldi	r31, 0x00	; 0
     fdc:	ec 0f       	add	r30, r28
     fde:	fd 1f       	adc	r31, r29
     fe0:	e1 0f       	add	r30, r17
     fe2:	f1 1d       	adc	r31, r1
     fe4:	80 81       	ld	r24, Z
     fe6:	80 33       	cpi	r24, 0x30	; 48
     fe8:	19 f4       	brne	.+6      	; 0xff0 <vfprintf+0x1ec>
     fea:	11 50       	subi	r17, 0x01	; 1
     fec:	11 11       	cpse	r17, r1
     fee:	f4 cf       	rjmp	.-24     	; 0xfd8 <vfprintf+0x1d4>
     ff0:	37 fe       	sbrs	r3, 7
     ff2:	0e c0       	rjmp	.+28     	; 0x1010 <vfprintf+0x20c>
     ff4:	ee 24       	eor	r14, r14
     ff6:	e3 94       	inc	r14
     ff8:	e1 0e       	add	r14, r17
     ffa:	81 2f       	mov	r24, r17
     ffc:	90 e0       	ldi	r25, 0x00	; 0
     ffe:	48 16       	cp	r4, r24
    1000:	59 06       	cpc	r5, r25
    1002:	2c f4       	brge	.+10     	; 0x100e <vfprintf+0x20a>
    1004:	14 19       	sub	r17, r4
    1006:	04 c0       	rjmp	.+8      	; 0x1010 <vfprintf+0x20c>
    1008:	ee 24       	eor	r14, r14
    100a:	e3 94       	inc	r14
    100c:	01 c0       	rjmp	.+2      	; 0x1010 <vfprintf+0x20c>
    100e:	10 e0       	ldi	r17, 0x00	; 0
    1010:	37 fe       	sbrs	r3, 7
    1012:	06 c0       	rjmp	.+12     	; 0x1020 <vfprintf+0x21c>
    1014:	14 14       	cp	r1, r4
    1016:	15 04       	cpc	r1, r5
    1018:	34 f4       	brge	.+12     	; 0x1026 <vfprintf+0x222>
    101a:	c2 01       	movw	r24, r4
    101c:	01 96       	adiw	r24, 0x01	; 1
    101e:	05 c0       	rjmp	.+10     	; 0x102a <vfprintf+0x226>
    1020:	85 e0       	ldi	r24, 0x05	; 5
    1022:	90 e0       	ldi	r25, 0x00	; 0
    1024:	02 c0       	rjmp	.+4      	; 0x102a <vfprintf+0x226>
    1026:	81 e0       	ldi	r24, 0x01	; 1
    1028:	90 e0       	ldi	r25, 0x00	; 0
    102a:	21 10       	cpse	r2, r1
    102c:	01 96       	adiw	r24, 0x01	; 1
    102e:	11 23       	and	r17, r17
    1030:	31 f0       	breq	.+12     	; 0x103e <vfprintf+0x23a>
    1032:	21 2f       	mov	r18, r17
    1034:	30 e0       	ldi	r19, 0x00	; 0
    1036:	2f 5f       	subi	r18, 0xFF	; 255
    1038:	3f 4f       	sbci	r19, 0xFF	; 255
    103a:	82 0f       	add	r24, r18
    103c:	93 1f       	adc	r25, r19
    103e:	2f 2d       	mov	r18, r15
    1040:	30 e0       	ldi	r19, 0x00	; 0
    1042:	82 17       	cp	r24, r18
    1044:	93 07       	cpc	r25, r19
    1046:	14 f4       	brge	.+4      	; 0x104c <vfprintf+0x248>
    1048:	f8 1a       	sub	r15, r24
    104a:	01 c0       	rjmp	.+2      	; 0x104e <vfprintf+0x24a>
    104c:	f1 2c       	mov	r15, r1
    104e:	83 2d       	mov	r24, r3
    1050:	89 70       	andi	r24, 0x09	; 9
    1052:	49 f4       	brne	.+18     	; 0x1066 <vfprintf+0x262>
    1054:	ff 20       	and	r15, r15
    1056:	39 f0       	breq	.+14     	; 0x1066 <vfprintf+0x262>
    1058:	b6 01       	movw	r22, r12
    105a:	80 e2       	ldi	r24, 0x20	; 32
    105c:	90 e0       	ldi	r25, 0x00	; 0
    105e:	0e 94 e8 0b 	call	0x17d0	; 0x17d0 <fputc>
    1062:	fa 94       	dec	r15
    1064:	f7 cf       	rjmp	.-18     	; 0x1054 <vfprintf+0x250>
    1066:	22 20       	and	r2, r2
    1068:	29 f0       	breq	.+10     	; 0x1074 <vfprintf+0x270>
    106a:	b6 01       	movw	r22, r12
    106c:	82 2d       	mov	r24, r2
    106e:	90 e0       	ldi	r25, 0x00	; 0
    1070:	0e 94 e8 0b 	call	0x17d0	; 0x17d0 <fputc>
    1074:	33 fc       	sbrc	r3, 3
    1076:	09 c0       	rjmp	.+18     	; 0x108a <vfprintf+0x286>
    1078:	ff 20       	and	r15, r15
    107a:	39 f0       	breq	.+14     	; 0x108a <vfprintf+0x286>
    107c:	b6 01       	movw	r22, r12
    107e:	80 e3       	ldi	r24, 0x30	; 48
    1080:	90 e0       	ldi	r25, 0x00	; 0
    1082:	0e 94 e8 0b 	call	0x17d0	; 0x17d0 <fputc>
    1086:	fa 94       	dec	r15
    1088:	f7 cf       	rjmp	.-18     	; 0x1078 <vfprintf+0x274>
    108a:	37 fe       	sbrs	r3, 7
    108c:	5a c0       	rjmp	.+180    	; 0x1142 <vfprintf+0x33e>
    108e:	94 2d       	mov	r25, r4
    1090:	85 2d       	mov	r24, r5
    1092:	57 fe       	sbrs	r5, 7
    1094:	02 c0       	rjmp	.+4      	; 0x109a <vfprintf+0x296>
    1096:	90 e0       	ldi	r25, 0x00	; 0
    1098:	80 e0       	ldi	r24, 0x00	; 0
    109a:	29 2e       	mov	r2, r25
    109c:	38 2e       	mov	r3, r24
    109e:	20 e0       	ldi	r18, 0x00	; 0
    10a0:	30 e0       	ldi	r19, 0x00	; 0
    10a2:	a2 01       	movw	r20, r4
    10a4:	4e 19       	sub	r20, r14
    10a6:	51 09       	sbc	r21, r1
    10a8:	5d 87       	std	Y+13, r21	; 0x0d
    10aa:	4c 87       	std	Y+12, r20	; 0x0c
    10ac:	a2 01       	movw	r20, r4
    10ae:	42 19       	sub	r20, r2
    10b0:	53 09       	sbc	r21, r3
    10b2:	5f 87       	std	Y+15, r21	; 0x0f
    10b4:	4e 87       	std	Y+14, r20	; 0x0e
    10b6:	61 2f       	mov	r22, r17
    10b8:	70 e0       	ldi	r23, 0x00	; 0
    10ba:	44 27       	eor	r20, r20
    10bc:	55 27       	eor	r21, r21
    10be:	46 1b       	sub	r20, r22
    10c0:	57 0b       	sbc	r21, r23
    10c2:	59 8b       	std	Y+17, r21	; 0x11
    10c4:	48 8b       	std	Y+16, r20	; 0x10
    10c6:	5f ef       	ldi	r21, 0xFF	; 255
    10c8:	25 16       	cp	r2, r21
    10ca:	35 06       	cpc	r3, r21
    10cc:	49 f4       	brne	.+18     	; 0x10e0 <vfprintf+0x2dc>
    10ce:	b6 01       	movw	r22, r12
    10d0:	8e e2       	ldi	r24, 0x2E	; 46
    10d2:	90 e0       	ldi	r25, 0x00	; 0
    10d4:	2a 8b       	std	Y+18, r18	; 0x12
    10d6:	3b 8b       	std	Y+19, r19	; 0x13
    10d8:	0e 94 e8 0b 	call	0x17d0	; 0x17d0 <fputc>
    10dc:	3b 89       	ldd	r19, Y+19	; 0x13
    10de:	2a 89       	ldd	r18, Y+18	; 0x12
    10e0:	42 14       	cp	r4, r2
    10e2:	53 04       	cpc	r5, r3
    10e4:	6c f0       	brlt	.+26     	; 0x1100 <vfprintf+0x2fc>
    10e6:	4c 85       	ldd	r20, Y+12	; 0x0c
    10e8:	5d 85       	ldd	r21, Y+13	; 0x0d
    10ea:	42 15       	cp	r20, r2
    10ec:	53 05       	cpc	r21, r3
    10ee:	44 f4       	brge	.+16     	; 0x1100 <vfprintf+0x2fc>
    10f0:	ee 85       	ldd	r30, Y+14	; 0x0e
    10f2:	ff 85       	ldd	r31, Y+15	; 0x0f
    10f4:	e2 0f       	add	r30, r18
    10f6:	f3 1f       	adc	r31, r19
    10f8:	e6 0d       	add	r30, r6
    10fa:	f7 1d       	adc	r31, r7
    10fc:	81 81       	ldd	r24, Z+1	; 0x01
    10fe:	01 c0       	rjmp	.+2      	; 0x1102 <vfprintf+0x2fe>
    1100:	80 e3       	ldi	r24, 0x30	; 48
    1102:	51 e0       	ldi	r21, 0x01	; 1
    1104:	25 1a       	sub	r2, r21
    1106:	31 08       	sbc	r3, r1
    1108:	2f 5f       	subi	r18, 0xFF	; 255
    110a:	3f 4f       	sbci	r19, 0xFF	; 255
    110c:	48 89       	ldd	r20, Y+16	; 0x10
    110e:	59 89       	ldd	r21, Y+17	; 0x11
    1110:	24 16       	cp	r2, r20
    1112:	35 06       	cpc	r3, r21
    1114:	4c f0       	brlt	.+18     	; 0x1128 <vfprintf+0x324>
    1116:	b6 01       	movw	r22, r12
    1118:	90 e0       	ldi	r25, 0x00	; 0
    111a:	2a 8b       	std	Y+18, r18	; 0x12
    111c:	3b 8b       	std	Y+19, r19	; 0x13
    111e:	0e 94 e8 0b 	call	0x17d0	; 0x17d0 <fputc>
    1122:	2a 89       	ldd	r18, Y+18	; 0x12
    1124:	3b 89       	ldd	r19, Y+19	; 0x13
    1126:	cf cf       	rjmp	.-98     	; 0x10c6 <vfprintf+0x2c2>
    1128:	24 14       	cp	r2, r4
    112a:	35 04       	cpc	r3, r5
    112c:	39 f4       	brne	.+14     	; 0x113c <vfprintf+0x338>
    112e:	9a 81       	ldd	r25, Y+2	; 0x02
    1130:	96 33       	cpi	r25, 0x36	; 54
    1132:	18 f4       	brcc	.+6      	; 0x113a <vfprintf+0x336>
    1134:	95 33       	cpi	r25, 0x35	; 53
    1136:	11 f4       	brne	.+4      	; 0x113c <vfprintf+0x338>
    1138:	04 ff       	sbrs	r16, 4
    113a:	81 e3       	ldi	r24, 0x31	; 49
    113c:	b6 01       	movw	r22, r12
    113e:	90 e0       	ldi	r25, 0x00	; 0
    1140:	4b c0       	rjmp	.+150    	; 0x11d8 <vfprintf+0x3d4>
    1142:	8a 81       	ldd	r24, Y+2	; 0x02
    1144:	81 33       	cpi	r24, 0x31	; 49
    1146:	09 f0       	breq	.+2      	; 0x114a <vfprintf+0x346>
    1148:	0f 7e       	andi	r16, 0xEF	; 239
    114a:	b6 01       	movw	r22, r12
    114c:	90 e0       	ldi	r25, 0x00	; 0
    114e:	0e 94 e8 0b 	call	0x17d0	; 0x17d0 <fputc>
    1152:	11 11       	cpse	r17, r1
    1154:	05 c0       	rjmp	.+10     	; 0x1160 <vfprintf+0x35c>
    1156:	34 fc       	sbrc	r3, 4
    1158:	18 c0       	rjmp	.+48     	; 0x118a <vfprintf+0x386>
    115a:	85 e6       	ldi	r24, 0x65	; 101
    115c:	90 e0       	ldi	r25, 0x00	; 0
    115e:	17 c0       	rjmp	.+46     	; 0x118e <vfprintf+0x38a>
    1160:	b6 01       	movw	r22, r12
    1162:	8e e2       	ldi	r24, 0x2E	; 46
    1164:	90 e0       	ldi	r25, 0x00	; 0
    1166:	0e 94 e8 0b 	call	0x17d0	; 0x17d0 <fputc>
    116a:	82 e0       	ldi	r24, 0x02	; 2
    116c:	ee 24       	eor	r14, r14
    116e:	e3 94       	inc	r14
    1170:	e8 0e       	add	r14, r24
    1172:	f3 01       	movw	r30, r6
    1174:	e8 0f       	add	r30, r24
    1176:	f1 1d       	adc	r31, r1
    1178:	80 81       	ld	r24, Z
    117a:	b6 01       	movw	r22, r12
    117c:	90 e0       	ldi	r25, 0x00	; 0
    117e:	0e 94 e8 0b 	call	0x17d0	; 0x17d0 <fputc>
    1182:	11 50       	subi	r17, 0x01	; 1
    1184:	8e 2d       	mov	r24, r14
    1186:	91 f7       	brne	.-28     	; 0x116c <vfprintf+0x368>
    1188:	e6 cf       	rjmp	.-52     	; 0x1156 <vfprintf+0x352>
    118a:	85 e4       	ldi	r24, 0x45	; 69
    118c:	90 e0       	ldi	r25, 0x00	; 0
    118e:	b6 01       	movw	r22, r12
    1190:	0e 94 e8 0b 	call	0x17d0	; 0x17d0 <fputc>
    1194:	57 fc       	sbrc	r5, 7
    1196:	05 c0       	rjmp	.+10     	; 0x11a2 <vfprintf+0x39e>
    1198:	41 14       	cp	r4, r1
    119a:	51 04       	cpc	r5, r1
    119c:	39 f4       	brne	.+14     	; 0x11ac <vfprintf+0x3a8>
    119e:	04 ff       	sbrs	r16, 4
    11a0:	05 c0       	rjmp	.+10     	; 0x11ac <vfprintf+0x3a8>
    11a2:	51 94       	neg	r5
    11a4:	41 94       	neg	r4
    11a6:	51 08       	sbc	r5, r1
    11a8:	8d e2       	ldi	r24, 0x2D	; 45
    11aa:	01 c0       	rjmp	.+2      	; 0x11ae <vfprintf+0x3aa>
    11ac:	8b e2       	ldi	r24, 0x2B	; 43
    11ae:	b6 01       	movw	r22, r12
    11b0:	90 e0       	ldi	r25, 0x00	; 0
    11b2:	0e 94 e8 0b 	call	0x17d0	; 0x17d0 <fputc>
    11b6:	80 e3       	ldi	r24, 0x30	; 48
    11b8:	9a e0       	ldi	r25, 0x0A	; 10
    11ba:	49 16       	cp	r4, r25
    11bc:	51 04       	cpc	r5, r1
    11be:	2c f0       	brlt	.+10     	; 0x11ca <vfprintf+0x3c6>
    11c0:	8f 5f       	subi	r24, 0xFF	; 255
    11c2:	5a e0       	ldi	r21, 0x0A	; 10
    11c4:	45 1a       	sub	r4, r21
    11c6:	51 08       	sbc	r5, r1
    11c8:	f7 cf       	rjmp	.-18     	; 0x11b8 <vfprintf+0x3b4>
    11ca:	b6 01       	movw	r22, r12
    11cc:	90 e0       	ldi	r25, 0x00	; 0
    11ce:	0e 94 e8 0b 	call	0x17d0	; 0x17d0 <fputc>
    11d2:	b6 01       	movw	r22, r12
    11d4:	c2 01       	movw	r24, r4
    11d6:	c0 96       	adiw	r24, 0x30	; 48
    11d8:	0e 94 e8 0b 	call	0x17d0	; 0x17d0 <fputc>
    11dc:	57 c1       	rjmp	.+686    	; 0x148c <vfprintf+0x688>
    11de:	83 36       	cpi	r24, 0x63	; 99
    11e0:	31 f0       	breq	.+12     	; 0x11ee <vfprintf+0x3ea>
    11e2:	83 37       	cpi	r24, 0x73	; 115
    11e4:	79 f0       	breq	.+30     	; 0x1204 <vfprintf+0x400>
    11e6:	83 35       	cpi	r24, 0x53	; 83
    11e8:	09 f0       	breq	.+2      	; 0x11ec <vfprintf+0x3e8>
    11ea:	58 c0       	rjmp	.+176    	; 0x129c <vfprintf+0x498>
    11ec:	21 c0       	rjmp	.+66     	; 0x1230 <vfprintf+0x42c>
    11ee:	52 01       	movw	r10, r4
    11f0:	e2 e0       	ldi	r30, 0x02	; 2
    11f2:	ae 0e       	add	r10, r30
    11f4:	b1 1c       	adc	r11, r1
    11f6:	f2 01       	movw	r30, r4
    11f8:	80 81       	ld	r24, Z
    11fa:	89 83       	std	Y+1, r24	; 0x01
    11fc:	01 e0       	ldi	r16, 0x01	; 1
    11fe:	10 e0       	ldi	r17, 0x00	; 0
    1200:	23 01       	movw	r4, r6
    1202:	14 c0       	rjmp	.+40     	; 0x122c <vfprintf+0x428>
    1204:	52 01       	movw	r10, r4
    1206:	f2 e0       	ldi	r31, 0x02	; 2
    1208:	af 0e       	add	r10, r31
    120a:	b1 1c       	adc	r11, r1
    120c:	f2 01       	movw	r30, r4
    120e:	40 80       	ld	r4, Z
    1210:	51 80       	ldd	r5, Z+1	; 0x01
    1212:	26 ff       	sbrs	r18, 6
    1214:	03 c0       	rjmp	.+6      	; 0x121c <vfprintf+0x418>
    1216:	61 2f       	mov	r22, r17
    1218:	70 e0       	ldi	r23, 0x00	; 0
    121a:	02 c0       	rjmp	.+4      	; 0x1220 <vfprintf+0x41c>
    121c:	6f ef       	ldi	r22, 0xFF	; 255
    121e:	7f ef       	ldi	r23, 0xFF	; 255
    1220:	c2 01       	movw	r24, r4
    1222:	2a 8b       	std	Y+18, r18	; 0x12
    1224:	0e 94 b8 0b 	call	0x1770	; 0x1770 <strnlen>
    1228:	8c 01       	movw	r16, r24
    122a:	2a 89       	ldd	r18, Y+18	; 0x12
    122c:	2f 77       	andi	r18, 0x7F	; 127
    122e:	15 c0       	rjmp	.+42     	; 0x125a <vfprintf+0x456>
    1230:	52 01       	movw	r10, r4
    1232:	f2 e0       	ldi	r31, 0x02	; 2
    1234:	af 0e       	add	r10, r31
    1236:	b1 1c       	adc	r11, r1
    1238:	f2 01       	movw	r30, r4
    123a:	40 80       	ld	r4, Z
    123c:	51 80       	ldd	r5, Z+1	; 0x01
    123e:	26 ff       	sbrs	r18, 6
    1240:	03 c0       	rjmp	.+6      	; 0x1248 <vfprintf+0x444>
    1242:	61 2f       	mov	r22, r17
    1244:	70 e0       	ldi	r23, 0x00	; 0
    1246:	02 c0       	rjmp	.+4      	; 0x124c <vfprintf+0x448>
    1248:	6f ef       	ldi	r22, 0xFF	; 255
    124a:	7f ef       	ldi	r23, 0xFF	; 255
    124c:	c2 01       	movw	r24, r4
    124e:	2a 8b       	std	Y+18, r18	; 0x12
    1250:	0e 94 ad 0b 	call	0x175a	; 0x175a <strnlen_P>
    1254:	8c 01       	movw	r16, r24
    1256:	2a 89       	ldd	r18, Y+18	; 0x12
    1258:	20 68       	ori	r18, 0x80	; 128
    125a:	32 2e       	mov	r3, r18
    125c:	23 fd       	sbrc	r18, 3
    125e:	1a c0       	rjmp	.+52     	; 0x1294 <vfprintf+0x490>
    1260:	8f 2d       	mov	r24, r15
    1262:	90 e0       	ldi	r25, 0x00	; 0
    1264:	08 17       	cp	r16, r24
    1266:	19 07       	cpc	r17, r25
    1268:	a8 f4       	brcc	.+42     	; 0x1294 <vfprintf+0x490>
    126a:	b6 01       	movw	r22, r12
    126c:	80 e2       	ldi	r24, 0x20	; 32
    126e:	90 e0       	ldi	r25, 0x00	; 0
    1270:	0e 94 e8 0b 	call	0x17d0	; 0x17d0 <fputc>
    1274:	fa 94       	dec	r15
    1276:	f4 cf       	rjmp	.-24     	; 0x1260 <vfprintf+0x45c>
    1278:	f2 01       	movw	r30, r4
    127a:	37 fc       	sbrc	r3, 7
    127c:	85 91       	lpm	r24, Z+
    127e:	37 fe       	sbrs	r3, 7
    1280:	81 91       	ld	r24, Z+
    1282:	2f 01       	movw	r4, r30
    1284:	b6 01       	movw	r22, r12
    1286:	90 e0       	ldi	r25, 0x00	; 0
    1288:	0e 94 e8 0b 	call	0x17d0	; 0x17d0 <fputc>
    128c:	f1 10       	cpse	r15, r1
    128e:	fa 94       	dec	r15
    1290:	01 50       	subi	r16, 0x01	; 1
    1292:	11 09       	sbc	r17, r1
    1294:	01 15       	cp	r16, r1
    1296:	11 05       	cpc	r17, r1
    1298:	79 f7       	brne	.-34     	; 0x1278 <vfprintf+0x474>
    129a:	f8 c0       	rjmp	.+496    	; 0x148c <vfprintf+0x688>
    129c:	84 36       	cpi	r24, 0x64	; 100
    129e:	11 f0       	breq	.+4      	; 0x12a4 <vfprintf+0x4a0>
    12a0:	89 36       	cpi	r24, 0x69	; 105
    12a2:	59 f5       	brne	.+86     	; 0x12fa <vfprintf+0x4f6>
    12a4:	52 01       	movw	r10, r4
    12a6:	27 ff       	sbrs	r18, 7
    12a8:	09 c0       	rjmp	.+18     	; 0x12bc <vfprintf+0x4b8>
    12aa:	f4 e0       	ldi	r31, 0x04	; 4
    12ac:	af 0e       	add	r10, r31
    12ae:	b1 1c       	adc	r11, r1
    12b0:	f2 01       	movw	r30, r4
    12b2:	60 81       	ld	r22, Z
    12b4:	71 81       	ldd	r23, Z+1	; 0x01
    12b6:	82 81       	ldd	r24, Z+2	; 0x02
    12b8:	93 81       	ldd	r25, Z+3	; 0x03
    12ba:	0a c0       	rjmp	.+20     	; 0x12d0 <vfprintf+0x4cc>
    12bc:	f2 e0       	ldi	r31, 0x02	; 2
    12be:	af 0e       	add	r10, r31
    12c0:	b1 1c       	adc	r11, r1
    12c2:	f2 01       	movw	r30, r4
    12c4:	60 81       	ld	r22, Z
    12c6:	71 81       	ldd	r23, Z+1	; 0x01
    12c8:	07 2e       	mov	r0, r23
    12ca:	00 0c       	add	r0, r0
    12cc:	88 0b       	sbc	r24, r24
    12ce:	99 0b       	sbc	r25, r25
    12d0:	2f 76       	andi	r18, 0x6F	; 111
    12d2:	32 2e       	mov	r3, r18
    12d4:	97 ff       	sbrs	r25, 7
    12d6:	09 c0       	rjmp	.+18     	; 0x12ea <vfprintf+0x4e6>
    12d8:	90 95       	com	r25
    12da:	80 95       	com	r24
    12dc:	70 95       	com	r23
    12de:	61 95       	neg	r22
    12e0:	7f 4f       	sbci	r23, 0xFF	; 255
    12e2:	8f 4f       	sbci	r24, 0xFF	; 255
    12e4:	9f 4f       	sbci	r25, 0xFF	; 255
    12e6:	20 68       	ori	r18, 0x80	; 128
    12e8:	32 2e       	mov	r3, r18
    12ea:	2a e0       	ldi	r18, 0x0A	; 10
    12ec:	30 e0       	ldi	r19, 0x00	; 0
    12ee:	a3 01       	movw	r20, r6
    12f0:	0e 94 43 0c 	call	0x1886	; 0x1886 <__ultoa_invert>
    12f4:	e8 2e       	mov	r14, r24
    12f6:	e6 18       	sub	r14, r6
    12f8:	3f c0       	rjmp	.+126    	; 0x1378 <vfprintf+0x574>
    12fa:	02 2f       	mov	r16, r18
    12fc:	85 37       	cpi	r24, 0x75	; 117
    12fe:	21 f4       	brne	.+8      	; 0x1308 <vfprintf+0x504>
    1300:	0f 7e       	andi	r16, 0xEF	; 239
    1302:	2a e0       	ldi	r18, 0x0A	; 10
    1304:	30 e0       	ldi	r19, 0x00	; 0
    1306:	1d c0       	rjmp	.+58     	; 0x1342 <vfprintf+0x53e>
    1308:	09 7f       	andi	r16, 0xF9	; 249
    130a:	8f 36       	cpi	r24, 0x6F	; 111
    130c:	91 f0       	breq	.+36     	; 0x1332 <vfprintf+0x52e>
    130e:	18 f4       	brcc	.+6      	; 0x1316 <vfprintf+0x512>
    1310:	88 35       	cpi	r24, 0x58	; 88
    1312:	59 f0       	breq	.+22     	; 0x132a <vfprintf+0x526>
    1314:	c5 c0       	rjmp	.+394    	; 0x14a0 <vfprintf+0x69c>
    1316:	80 37       	cpi	r24, 0x70	; 112
    1318:	19 f0       	breq	.+6      	; 0x1320 <vfprintf+0x51c>
    131a:	88 37       	cpi	r24, 0x78	; 120
    131c:	11 f0       	breq	.+4      	; 0x1322 <vfprintf+0x51e>
    131e:	c0 c0       	rjmp	.+384    	; 0x14a0 <vfprintf+0x69c>
    1320:	00 61       	ori	r16, 0x10	; 16
    1322:	04 ff       	sbrs	r16, 4
    1324:	09 c0       	rjmp	.+18     	; 0x1338 <vfprintf+0x534>
    1326:	04 60       	ori	r16, 0x04	; 4
    1328:	07 c0       	rjmp	.+14     	; 0x1338 <vfprintf+0x534>
    132a:	24 ff       	sbrs	r18, 4
    132c:	08 c0       	rjmp	.+16     	; 0x133e <vfprintf+0x53a>
    132e:	06 60       	ori	r16, 0x06	; 6
    1330:	06 c0       	rjmp	.+12     	; 0x133e <vfprintf+0x53a>
    1332:	28 e0       	ldi	r18, 0x08	; 8
    1334:	30 e0       	ldi	r19, 0x00	; 0
    1336:	05 c0       	rjmp	.+10     	; 0x1342 <vfprintf+0x53e>
    1338:	20 e1       	ldi	r18, 0x10	; 16
    133a:	30 e0       	ldi	r19, 0x00	; 0
    133c:	02 c0       	rjmp	.+4      	; 0x1342 <vfprintf+0x53e>
    133e:	20 e1       	ldi	r18, 0x10	; 16
    1340:	32 e0       	ldi	r19, 0x02	; 2
    1342:	52 01       	movw	r10, r4
    1344:	07 ff       	sbrs	r16, 7
    1346:	09 c0       	rjmp	.+18     	; 0x135a <vfprintf+0x556>
    1348:	f4 e0       	ldi	r31, 0x04	; 4
    134a:	af 0e       	add	r10, r31
    134c:	b1 1c       	adc	r11, r1
    134e:	f2 01       	movw	r30, r4
    1350:	60 81       	ld	r22, Z
    1352:	71 81       	ldd	r23, Z+1	; 0x01
    1354:	82 81       	ldd	r24, Z+2	; 0x02
    1356:	93 81       	ldd	r25, Z+3	; 0x03
    1358:	08 c0       	rjmp	.+16     	; 0x136a <vfprintf+0x566>
    135a:	f2 e0       	ldi	r31, 0x02	; 2
    135c:	af 0e       	add	r10, r31
    135e:	b1 1c       	adc	r11, r1
    1360:	f2 01       	movw	r30, r4
    1362:	60 81       	ld	r22, Z
    1364:	71 81       	ldd	r23, Z+1	; 0x01
    1366:	80 e0       	ldi	r24, 0x00	; 0
    1368:	90 e0       	ldi	r25, 0x00	; 0
    136a:	a3 01       	movw	r20, r6
    136c:	0e 94 43 0c 	call	0x1886	; 0x1886 <__ultoa_invert>
    1370:	e8 2e       	mov	r14, r24
    1372:	e6 18       	sub	r14, r6
    1374:	0f 77       	andi	r16, 0x7F	; 127
    1376:	30 2e       	mov	r3, r16
    1378:	36 fe       	sbrs	r3, 6
    137a:	0b c0       	rjmp	.+22     	; 0x1392 <vfprintf+0x58e>
    137c:	33 2d       	mov	r19, r3
    137e:	3e 7f       	andi	r19, 0xFE	; 254
    1380:	e1 16       	cp	r14, r17
    1382:	50 f4       	brcc	.+20     	; 0x1398 <vfprintf+0x594>
    1384:	34 fe       	sbrs	r3, 4
    1386:	0a c0       	rjmp	.+20     	; 0x139c <vfprintf+0x598>
    1388:	32 fc       	sbrc	r3, 2
    138a:	08 c0       	rjmp	.+16     	; 0x139c <vfprintf+0x598>
    138c:	33 2d       	mov	r19, r3
    138e:	3e 7e       	andi	r19, 0xEE	; 238
    1390:	05 c0       	rjmp	.+10     	; 0x139c <vfprintf+0x598>
    1392:	0e 2d       	mov	r16, r14
    1394:	33 2d       	mov	r19, r3
    1396:	03 c0       	rjmp	.+6      	; 0x139e <vfprintf+0x59a>
    1398:	0e 2d       	mov	r16, r14
    139a:	01 c0       	rjmp	.+2      	; 0x139e <vfprintf+0x59a>
    139c:	01 2f       	mov	r16, r17
    139e:	34 ff       	sbrs	r19, 4
    13a0:	0c c0       	rjmp	.+24     	; 0x13ba <vfprintf+0x5b6>
    13a2:	fe 01       	movw	r30, r28
    13a4:	ee 0d       	add	r30, r14
    13a6:	f1 1d       	adc	r31, r1
    13a8:	80 81       	ld	r24, Z
    13aa:	80 33       	cpi	r24, 0x30	; 48
    13ac:	11 f4       	brne	.+4      	; 0x13b2 <vfprintf+0x5ae>
    13ae:	39 7e       	andi	r19, 0xE9	; 233
    13b0:	08 c0       	rjmp	.+16     	; 0x13c2 <vfprintf+0x5be>
    13b2:	32 ff       	sbrs	r19, 2
    13b4:	05 c0       	rjmp	.+10     	; 0x13c0 <vfprintf+0x5bc>
    13b6:	0e 5f       	subi	r16, 0xFE	; 254
    13b8:	04 c0       	rjmp	.+8      	; 0x13c2 <vfprintf+0x5be>
    13ba:	83 2f       	mov	r24, r19
    13bc:	86 78       	andi	r24, 0x86	; 134
    13be:	09 f0       	breq	.+2      	; 0x13c2 <vfprintf+0x5be>
    13c0:	0f 5f       	subi	r16, 0xFF	; 255
    13c2:	33 fd       	sbrc	r19, 3
    13c4:	13 c0       	rjmp	.+38     	; 0x13ec <vfprintf+0x5e8>
    13c6:	30 ff       	sbrs	r19, 0
    13c8:	06 c0       	rjmp	.+12     	; 0x13d6 <vfprintf+0x5d2>
    13ca:	1e 2d       	mov	r17, r14
    13cc:	0f 15       	cp	r16, r15
    13ce:	18 f4       	brcc	.+6      	; 0x13d6 <vfprintf+0x5d2>
    13d0:	1f 0d       	add	r17, r15
    13d2:	10 1b       	sub	r17, r16
    13d4:	0f 2d       	mov	r16, r15
    13d6:	0f 15       	cp	r16, r15
    13d8:	68 f4       	brcc	.+26     	; 0x13f4 <vfprintf+0x5f0>
    13da:	b6 01       	movw	r22, r12
    13dc:	80 e2       	ldi	r24, 0x20	; 32
    13de:	90 e0       	ldi	r25, 0x00	; 0
    13e0:	3b 8b       	std	Y+19, r19	; 0x13
    13e2:	0e 94 e8 0b 	call	0x17d0	; 0x17d0 <fputc>
    13e6:	0f 5f       	subi	r16, 0xFF	; 255
    13e8:	3b 89       	ldd	r19, Y+19	; 0x13
    13ea:	f5 cf       	rjmp	.-22     	; 0x13d6 <vfprintf+0x5d2>
    13ec:	0f 15       	cp	r16, r15
    13ee:	10 f4       	brcc	.+4      	; 0x13f4 <vfprintf+0x5f0>
    13f0:	f0 1a       	sub	r15, r16
    13f2:	01 c0       	rjmp	.+2      	; 0x13f6 <vfprintf+0x5f2>
    13f4:	f1 2c       	mov	r15, r1
    13f6:	34 ff       	sbrs	r19, 4
    13f8:	12 c0       	rjmp	.+36     	; 0x141e <vfprintf+0x61a>
    13fa:	b6 01       	movw	r22, r12
    13fc:	80 e3       	ldi	r24, 0x30	; 48
    13fe:	90 e0       	ldi	r25, 0x00	; 0
    1400:	3b 8b       	std	Y+19, r19	; 0x13
    1402:	0e 94 e8 0b 	call	0x17d0	; 0x17d0 <fputc>
    1406:	3b 89       	ldd	r19, Y+19	; 0x13
    1408:	32 ff       	sbrs	r19, 2
    140a:	17 c0       	rjmp	.+46     	; 0x143a <vfprintf+0x636>
    140c:	31 fd       	sbrc	r19, 1
    140e:	03 c0       	rjmp	.+6      	; 0x1416 <vfprintf+0x612>
    1410:	88 e7       	ldi	r24, 0x78	; 120
    1412:	90 e0       	ldi	r25, 0x00	; 0
    1414:	02 c0       	rjmp	.+4      	; 0x141a <vfprintf+0x616>
    1416:	88 e5       	ldi	r24, 0x58	; 88
    1418:	90 e0       	ldi	r25, 0x00	; 0
    141a:	b6 01       	movw	r22, r12
    141c:	0c c0       	rjmp	.+24     	; 0x1436 <vfprintf+0x632>
    141e:	83 2f       	mov	r24, r19
    1420:	86 78       	andi	r24, 0x86	; 134
    1422:	59 f0       	breq	.+22     	; 0x143a <vfprintf+0x636>
    1424:	31 ff       	sbrs	r19, 1
    1426:	02 c0       	rjmp	.+4      	; 0x142c <vfprintf+0x628>
    1428:	8b e2       	ldi	r24, 0x2B	; 43
    142a:	01 c0       	rjmp	.+2      	; 0x142e <vfprintf+0x62a>
    142c:	80 e2       	ldi	r24, 0x20	; 32
    142e:	37 fd       	sbrc	r19, 7
    1430:	8d e2       	ldi	r24, 0x2D	; 45
    1432:	b6 01       	movw	r22, r12
    1434:	90 e0       	ldi	r25, 0x00	; 0
    1436:	0e 94 e8 0b 	call	0x17d0	; 0x17d0 <fputc>
    143a:	e1 16       	cp	r14, r17
    143c:	38 f4       	brcc	.+14     	; 0x144c <vfprintf+0x648>
    143e:	b6 01       	movw	r22, r12
    1440:	80 e3       	ldi	r24, 0x30	; 48
    1442:	90 e0       	ldi	r25, 0x00	; 0
    1444:	0e 94 e8 0b 	call	0x17d0	; 0x17d0 <fputc>
    1448:	11 50       	subi	r17, 0x01	; 1
    144a:	f7 cf       	rjmp	.-18     	; 0x143a <vfprintf+0x636>
    144c:	ea 94       	dec	r14
    144e:	f3 01       	movw	r30, r6
    1450:	ee 0d       	add	r30, r14
    1452:	f1 1d       	adc	r31, r1
    1454:	80 81       	ld	r24, Z
    1456:	b6 01       	movw	r22, r12
    1458:	90 e0       	ldi	r25, 0x00	; 0
    145a:	0e 94 e8 0b 	call	0x17d0	; 0x17d0 <fputc>
    145e:	e1 10       	cpse	r14, r1
    1460:	f5 cf       	rjmp	.-22     	; 0x144c <vfprintf+0x648>
    1462:	14 c0       	rjmp	.+40     	; 0x148c <vfprintf+0x688>
    1464:	f4 e0       	ldi	r31, 0x04	; 4
    1466:	ff 15       	cp	r31, r15
    1468:	58 f5       	brcc	.+86     	; 0x14c0 <vfprintf+0x6bc>
    146a:	84 e0       	ldi	r24, 0x04	; 4
    146c:	f8 1a       	sub	r15, r24
    146e:	33 fe       	sbrs	r3, 3
    1470:	1e c0       	rjmp	.+60     	; 0x14ae <vfprintf+0x6aa>
    1472:	21 10       	cpse	r2, r1
    1474:	26 c0       	rjmp	.+76     	; 0x14c2 <vfprintf+0x6be>
    1476:	03 ff       	sbrs	r16, 3
    1478:	2a c0       	rjmp	.+84     	; 0x14ce <vfprintf+0x6ca>
    147a:	04 e5       	ldi	r16, 0x54	; 84
    147c:	10 e0       	ldi	r17, 0x00	; 0
    147e:	f3 2d       	mov	r31, r3
    1480:	f0 71       	andi	r31, 0x10	; 16
    1482:	3f 2e       	mov	r3, r31
    1484:	f8 01       	movw	r30, r16
    1486:	84 91       	lpm	r24, Z
    1488:	81 11       	cpse	r24, r1
    148a:	24 c0       	rjmp	.+72     	; 0x14d4 <vfprintf+0x6d0>
    148c:	ff 20       	and	r15, r15
    148e:	09 f4       	brne	.+2      	; 0x1492 <vfprintf+0x68e>
    1490:	e5 cc       	rjmp	.-1590   	; 0xe5c <vfprintf+0x58>
    1492:	b6 01       	movw	r22, r12
    1494:	80 e2       	ldi	r24, 0x20	; 32
    1496:	90 e0       	ldi	r25, 0x00	; 0
    1498:	0e 94 e8 0b 	call	0x17d0	; 0x17d0 <fputc>
    149c:	fa 94       	dec	r15
    149e:	f6 cf       	rjmp	.-20     	; 0x148c <vfprintf+0x688>
    14a0:	f6 01       	movw	r30, r12
    14a2:	86 81       	ldd	r24, Z+6	; 0x06
    14a4:	97 81       	ldd	r25, Z+7	; 0x07
    14a6:	26 c0       	rjmp	.+76     	; 0x14f4 <vfprintf+0x6f0>
    14a8:	8f ef       	ldi	r24, 0xFF	; 255
    14aa:	9f ef       	ldi	r25, 0xFF	; 255
    14ac:	23 c0       	rjmp	.+70     	; 0x14f4 <vfprintf+0x6f0>
    14ae:	b6 01       	movw	r22, r12
    14b0:	80 e2       	ldi	r24, 0x20	; 32
    14b2:	90 e0       	ldi	r25, 0x00	; 0
    14b4:	0e 94 e8 0b 	call	0x17d0	; 0x17d0 <fputc>
    14b8:	fa 94       	dec	r15
    14ba:	f1 10       	cpse	r15, r1
    14bc:	f8 cf       	rjmp	.-16     	; 0x14ae <vfprintf+0x6aa>
    14be:	d9 cf       	rjmp	.-78     	; 0x1472 <vfprintf+0x66e>
    14c0:	f1 2c       	mov	r15, r1
    14c2:	b6 01       	movw	r22, r12
    14c4:	82 2d       	mov	r24, r2
    14c6:	90 e0       	ldi	r25, 0x00	; 0
    14c8:	0e 94 e8 0b 	call	0x17d0	; 0x17d0 <fputc>
    14cc:	d4 cf       	rjmp	.-88     	; 0x1476 <vfprintf+0x672>
    14ce:	08 e5       	ldi	r16, 0x58	; 88
    14d0:	10 e0       	ldi	r17, 0x00	; 0
    14d2:	d5 cf       	rjmp	.-86     	; 0x147e <vfprintf+0x67a>
    14d4:	31 10       	cpse	r3, r1
    14d6:	80 52       	subi	r24, 0x20	; 32
    14d8:	b6 01       	movw	r22, r12
    14da:	90 e0       	ldi	r25, 0x00	; 0
    14dc:	0e 94 e8 0b 	call	0x17d0	; 0x17d0 <fputc>
    14e0:	0f 5f       	subi	r16, 0xFF	; 255
    14e2:	1f 4f       	sbci	r17, 0xFF	; 255
    14e4:	cf cf       	rjmp	.-98     	; 0x1484 <vfprintf+0x680>
    14e6:	23 e0       	ldi	r18, 0x03	; 3
    14e8:	2f 15       	cp	r18, r15
    14ea:	10 f4       	brcc	.+4      	; 0x14f0 <vfprintf+0x6ec>
    14ec:	83 e0       	ldi	r24, 0x03	; 3
    14ee:	be cf       	rjmp	.-132    	; 0x146c <vfprintf+0x668>
    14f0:	f1 2c       	mov	r15, r1
    14f2:	c1 cf       	rjmp	.-126    	; 0x1476 <vfprintf+0x672>
    14f4:	63 96       	adiw	r28, 0x13	; 19
    14f6:	e2 e1       	ldi	r30, 0x12	; 18
    14f8:	0c 94 9a 0a 	jmp	0x1534	; 0x1534 <__epilogue_restores__>

000014fc <__prologue_saves__>:
    14fc:	2f 92       	push	r2
    14fe:	3f 92       	push	r3
    1500:	4f 92       	push	r4
    1502:	5f 92       	push	r5
    1504:	6f 92       	push	r6
    1506:	7f 92       	push	r7
    1508:	8f 92       	push	r8
    150a:	9f 92       	push	r9
    150c:	af 92       	push	r10
    150e:	bf 92       	push	r11
    1510:	cf 92       	push	r12
    1512:	df 92       	push	r13
    1514:	ef 92       	push	r14
    1516:	ff 92       	push	r15
    1518:	0f 93       	push	r16
    151a:	1f 93       	push	r17
    151c:	cf 93       	push	r28
    151e:	df 93       	push	r29
    1520:	cd b7       	in	r28, 0x3d	; 61
    1522:	de b7       	in	r29, 0x3e	; 62
    1524:	ca 1b       	sub	r28, r26
    1526:	db 0b       	sbc	r29, r27
    1528:	0f b6       	in	r0, 0x3f	; 63
    152a:	f8 94       	cli
    152c:	de bf       	out	0x3e, r29	; 62
    152e:	0f be       	out	0x3f, r0	; 63
    1530:	cd bf       	out	0x3d, r28	; 61
    1532:	09 94       	ijmp

00001534 <__epilogue_restores__>:
    1534:	2a 88       	ldd	r2, Y+18	; 0x12
    1536:	39 88       	ldd	r3, Y+17	; 0x11
    1538:	48 88       	ldd	r4, Y+16	; 0x10
    153a:	5f 84       	ldd	r5, Y+15	; 0x0f
    153c:	6e 84       	ldd	r6, Y+14	; 0x0e
    153e:	7d 84       	ldd	r7, Y+13	; 0x0d
    1540:	8c 84       	ldd	r8, Y+12	; 0x0c
    1542:	9b 84       	ldd	r9, Y+11	; 0x0b
    1544:	aa 84       	ldd	r10, Y+10	; 0x0a
    1546:	b9 84       	ldd	r11, Y+9	; 0x09
    1548:	c8 84       	ldd	r12, Y+8	; 0x08
    154a:	df 80       	ldd	r13, Y+7	; 0x07
    154c:	ee 80       	ldd	r14, Y+6	; 0x06
    154e:	fd 80       	ldd	r15, Y+5	; 0x05
    1550:	0c 81       	ldd	r16, Y+4	; 0x04
    1552:	1b 81       	ldd	r17, Y+3	; 0x03
    1554:	aa 81       	ldd	r26, Y+2	; 0x02
    1556:	b9 81       	ldd	r27, Y+1	; 0x01
    1558:	ce 0f       	add	r28, r30
    155a:	d1 1d       	adc	r29, r1
    155c:	0f b6       	in	r0, 0x3f	; 63
    155e:	f8 94       	cli
    1560:	de bf       	out	0x3e, r29	; 62
    1562:	0f be       	out	0x3f, r0	; 63
    1564:	cd bf       	out	0x3d, r28	; 61
    1566:	ed 01       	movw	r28, r26
    1568:	08 95       	ret

0000156a <dtostrf>:
    156a:	ef 92       	push	r14
    156c:	0f 93       	push	r16
    156e:	1f 93       	push	r17
    1570:	cf 93       	push	r28
    1572:	df 93       	push	r29
    1574:	e8 01       	movw	r28, r16
    1576:	47 fd       	sbrc	r20, 7
    1578:	02 c0       	rjmp	.+4      	; 0x157e <dtostrf+0x14>
    157a:	34 e0       	ldi	r19, 0x04	; 4
    157c:	01 c0       	rjmp	.+2      	; 0x1580 <dtostrf+0x16>
    157e:	34 e1       	ldi	r19, 0x14	; 20
    1580:	e4 2f       	mov	r30, r20
    1582:	44 0f       	add	r20, r20
    1584:	ff 0b       	sbc	r31, r31
    1586:	f7 ff       	sbrs	r31, 7
    1588:	03 c0       	rjmp	.+6      	; 0x1590 <dtostrf+0x26>
    158a:	f1 95       	neg	r31
    158c:	e1 95       	neg	r30
    158e:	f1 09       	sbc	r31, r1
    1590:	e3 2e       	mov	r14, r19
    1592:	02 2f       	mov	r16, r18
    1594:	2e 2f       	mov	r18, r30
    1596:	ae 01       	movw	r20, r28
    1598:	0e 94 a1 0c 	call	0x1942	; 0x1942 <dtoa_prf>
    159c:	ce 01       	movw	r24, r28
    159e:	df 91       	pop	r29
    15a0:	cf 91       	pop	r28
    15a2:	1f 91       	pop	r17
    15a4:	0f 91       	pop	r16
    15a6:	ef 90       	pop	r14
    15a8:	08 95       	ret

000015aa <__ftoa_engine>:
    15aa:	28 30       	cpi	r18, 0x08	; 8
    15ac:	08 f0       	brcs	.+2      	; 0x15b0 <__ftoa_engine+0x6>
    15ae:	27 e0       	ldi	r18, 0x07	; 7
    15b0:	33 27       	eor	r19, r19
    15b2:	da 01       	movw	r26, r20
    15b4:	99 0f       	add	r25, r25
    15b6:	31 1d       	adc	r19, r1
    15b8:	87 fd       	sbrc	r24, 7
    15ba:	91 60       	ori	r25, 0x01	; 1
    15bc:	00 96       	adiw	r24, 0x00	; 0
    15be:	61 05       	cpc	r22, r1
    15c0:	71 05       	cpc	r23, r1
    15c2:	39 f4       	brne	.+14     	; 0x15d2 <__ftoa_engine+0x28>
    15c4:	32 60       	ori	r19, 0x02	; 2
    15c6:	2e 5f       	subi	r18, 0xFE	; 254
    15c8:	3d 93       	st	X+, r19
    15ca:	30 e3       	ldi	r19, 0x30	; 48
    15cc:	2a 95       	dec	r18
    15ce:	e1 f7       	brne	.-8      	; 0x15c8 <__ftoa_engine+0x1e>
    15d0:	08 95       	ret
    15d2:	9f 3f       	cpi	r25, 0xFF	; 255
    15d4:	30 f0       	brcs	.+12     	; 0x15e2 <__ftoa_engine+0x38>
    15d6:	80 38       	cpi	r24, 0x80	; 128
    15d8:	71 05       	cpc	r23, r1
    15da:	61 05       	cpc	r22, r1
    15dc:	09 f0       	breq	.+2      	; 0x15e0 <__ftoa_engine+0x36>
    15de:	3c 5f       	subi	r19, 0xFC	; 252
    15e0:	3c 5f       	subi	r19, 0xFC	; 252
    15e2:	3d 93       	st	X+, r19
    15e4:	91 30       	cpi	r25, 0x01	; 1
    15e6:	08 f0       	brcs	.+2      	; 0x15ea <__ftoa_engine+0x40>
    15e8:	80 68       	ori	r24, 0x80	; 128
    15ea:	91 1d       	adc	r25, r1
    15ec:	df 93       	push	r29
    15ee:	cf 93       	push	r28
    15f0:	1f 93       	push	r17
    15f2:	0f 93       	push	r16
    15f4:	ff 92       	push	r15
    15f6:	ef 92       	push	r14
    15f8:	19 2f       	mov	r17, r25
    15fa:	98 7f       	andi	r25, 0xF8	; 248
    15fc:	96 95       	lsr	r25
    15fe:	e9 2f       	mov	r30, r25
    1600:	96 95       	lsr	r25
    1602:	96 95       	lsr	r25
    1604:	e9 0f       	add	r30, r25
    1606:	ff 27       	eor	r31, r31
    1608:	ea 54       	subi	r30, 0x4A	; 74
    160a:	ff 4f       	sbci	r31, 0xFF	; 255
    160c:	99 27       	eor	r25, r25
    160e:	33 27       	eor	r19, r19
    1610:	ee 24       	eor	r14, r14
    1612:	ff 24       	eor	r15, r15
    1614:	a7 01       	movw	r20, r14
    1616:	e7 01       	movw	r28, r14
    1618:	05 90       	lpm	r0, Z+
    161a:	08 94       	sec
    161c:	07 94       	ror	r0
    161e:	28 f4       	brcc	.+10     	; 0x162a <__ftoa_engine+0x80>
    1620:	36 0f       	add	r19, r22
    1622:	e7 1e       	adc	r14, r23
    1624:	f8 1e       	adc	r15, r24
    1626:	49 1f       	adc	r20, r25
    1628:	51 1d       	adc	r21, r1
    162a:	66 0f       	add	r22, r22
    162c:	77 1f       	adc	r23, r23
    162e:	88 1f       	adc	r24, r24
    1630:	99 1f       	adc	r25, r25
    1632:	06 94       	lsr	r0
    1634:	a1 f7       	brne	.-24     	; 0x161e <__ftoa_engine+0x74>
    1636:	05 90       	lpm	r0, Z+
    1638:	07 94       	ror	r0
    163a:	28 f4       	brcc	.+10     	; 0x1646 <__ftoa_engine+0x9c>
    163c:	e7 0e       	add	r14, r23
    163e:	f8 1e       	adc	r15, r24
    1640:	49 1f       	adc	r20, r25
    1642:	56 1f       	adc	r21, r22
    1644:	c1 1d       	adc	r28, r1
    1646:	77 0f       	add	r23, r23
    1648:	88 1f       	adc	r24, r24
    164a:	99 1f       	adc	r25, r25
    164c:	66 1f       	adc	r22, r22
    164e:	06 94       	lsr	r0
    1650:	a1 f7       	brne	.-24     	; 0x163a <__ftoa_engine+0x90>
    1652:	05 90       	lpm	r0, Z+
    1654:	07 94       	ror	r0
    1656:	28 f4       	brcc	.+10     	; 0x1662 <__ftoa_engine+0xb8>
    1658:	f8 0e       	add	r15, r24
    165a:	49 1f       	adc	r20, r25
    165c:	56 1f       	adc	r21, r22
    165e:	c7 1f       	adc	r28, r23
    1660:	d1 1d       	adc	r29, r1
    1662:	88 0f       	add	r24, r24
    1664:	99 1f       	adc	r25, r25
    1666:	66 1f       	adc	r22, r22
    1668:	77 1f       	adc	r23, r23
    166a:	06 94       	lsr	r0
    166c:	a1 f7       	brne	.-24     	; 0x1656 <__ftoa_engine+0xac>
    166e:	05 90       	lpm	r0, Z+
    1670:	07 94       	ror	r0
    1672:	20 f4       	brcc	.+8      	; 0x167c <__ftoa_engine+0xd2>
    1674:	49 0f       	add	r20, r25
    1676:	56 1f       	adc	r21, r22
    1678:	c7 1f       	adc	r28, r23
    167a:	d8 1f       	adc	r29, r24
    167c:	99 0f       	add	r25, r25
    167e:	66 1f       	adc	r22, r22
    1680:	77 1f       	adc	r23, r23
    1682:	88 1f       	adc	r24, r24
    1684:	06 94       	lsr	r0
    1686:	a9 f7       	brne	.-22     	; 0x1672 <__ftoa_engine+0xc8>
    1688:	84 91       	lpm	r24, Z
    168a:	10 95       	com	r17
    168c:	17 70       	andi	r17, 0x07	; 7
    168e:	41 f0       	breq	.+16     	; 0x16a0 <__ftoa_engine+0xf6>
    1690:	d6 95       	lsr	r29
    1692:	c7 95       	ror	r28
    1694:	57 95       	ror	r21
    1696:	47 95       	ror	r20
    1698:	f7 94       	ror	r15
    169a:	e7 94       	ror	r14
    169c:	1a 95       	dec	r17
    169e:	c1 f7       	brne	.-16     	; 0x1690 <__ftoa_engine+0xe6>
    16a0:	ec e5       	ldi	r30, 0x5C	; 92
    16a2:	f0 e0       	ldi	r31, 0x00	; 0
    16a4:	68 94       	set
    16a6:	15 90       	lpm	r1, Z+
    16a8:	15 91       	lpm	r17, Z+
    16aa:	35 91       	lpm	r19, Z+
    16ac:	65 91       	lpm	r22, Z+
    16ae:	95 91       	lpm	r25, Z+
    16b0:	05 90       	lpm	r0, Z+
    16b2:	7f e2       	ldi	r23, 0x2F	; 47
    16b4:	73 95       	inc	r23
    16b6:	e1 18       	sub	r14, r1
    16b8:	f1 0a       	sbc	r15, r17
    16ba:	43 0b       	sbc	r20, r19
    16bc:	56 0b       	sbc	r21, r22
    16be:	c9 0b       	sbc	r28, r25
    16c0:	d0 09       	sbc	r29, r0
    16c2:	c0 f7       	brcc	.-16     	; 0x16b4 <__ftoa_engine+0x10a>
    16c4:	e1 0c       	add	r14, r1
    16c6:	f1 1e       	adc	r15, r17
    16c8:	43 1f       	adc	r20, r19
    16ca:	56 1f       	adc	r21, r22
    16cc:	c9 1f       	adc	r28, r25
    16ce:	d0 1d       	adc	r29, r0
    16d0:	7e f4       	brtc	.+30     	; 0x16f0 <__ftoa_engine+0x146>
    16d2:	70 33       	cpi	r23, 0x30	; 48
    16d4:	11 f4       	brne	.+4      	; 0x16da <__ftoa_engine+0x130>
    16d6:	8a 95       	dec	r24
    16d8:	e6 cf       	rjmp	.-52     	; 0x16a6 <__ftoa_engine+0xfc>
    16da:	e8 94       	clt
    16dc:	01 50       	subi	r16, 0x01	; 1
    16de:	30 f0       	brcs	.+12     	; 0x16ec <__ftoa_engine+0x142>
    16e0:	08 0f       	add	r16, r24
    16e2:	0a f4       	brpl	.+2      	; 0x16e6 <__ftoa_engine+0x13c>
    16e4:	00 27       	eor	r16, r16
    16e6:	02 17       	cp	r16, r18
    16e8:	08 f4       	brcc	.+2      	; 0x16ec <__ftoa_engine+0x142>
    16ea:	20 2f       	mov	r18, r16
    16ec:	23 95       	inc	r18
    16ee:	02 2f       	mov	r16, r18
    16f0:	7a 33       	cpi	r23, 0x3A	; 58
    16f2:	28 f0       	brcs	.+10     	; 0x16fe <__ftoa_engine+0x154>
    16f4:	79 e3       	ldi	r23, 0x39	; 57
    16f6:	7d 93       	st	X+, r23
    16f8:	2a 95       	dec	r18
    16fa:	e9 f7       	brne	.-6      	; 0x16f6 <__ftoa_engine+0x14c>
    16fc:	10 c0       	rjmp	.+32     	; 0x171e <__ftoa_engine+0x174>
    16fe:	7d 93       	st	X+, r23
    1700:	2a 95       	dec	r18
    1702:	89 f6       	brne	.-94     	; 0x16a6 <__ftoa_engine+0xfc>
    1704:	06 94       	lsr	r0
    1706:	97 95       	ror	r25
    1708:	67 95       	ror	r22
    170a:	37 95       	ror	r19
    170c:	17 95       	ror	r17
    170e:	17 94       	ror	r1
    1710:	e1 18       	sub	r14, r1
    1712:	f1 0a       	sbc	r15, r17
    1714:	43 0b       	sbc	r20, r19
    1716:	56 0b       	sbc	r21, r22
    1718:	c9 0b       	sbc	r28, r25
    171a:	d0 09       	sbc	r29, r0
    171c:	98 f0       	brcs	.+38     	; 0x1744 <__ftoa_engine+0x19a>
    171e:	23 95       	inc	r18
    1720:	7e 91       	ld	r23, -X
    1722:	73 95       	inc	r23
    1724:	7a 33       	cpi	r23, 0x3A	; 58
    1726:	08 f0       	brcs	.+2      	; 0x172a <__ftoa_engine+0x180>
    1728:	70 e3       	ldi	r23, 0x30	; 48
    172a:	7c 93       	st	X, r23
    172c:	20 13       	cpse	r18, r16
    172e:	b8 f7       	brcc	.-18     	; 0x171e <__ftoa_engine+0x174>
    1730:	7e 91       	ld	r23, -X
    1732:	70 61       	ori	r23, 0x10	; 16
    1734:	7d 93       	st	X+, r23
    1736:	30 f0       	brcs	.+12     	; 0x1744 <__ftoa_engine+0x19a>
    1738:	83 95       	inc	r24
    173a:	71 e3       	ldi	r23, 0x31	; 49
    173c:	7d 93       	st	X+, r23
    173e:	70 e3       	ldi	r23, 0x30	; 48
    1740:	2a 95       	dec	r18
    1742:	e1 f7       	brne	.-8      	; 0x173c <__ftoa_engine+0x192>
    1744:	11 24       	eor	r1, r1
    1746:	ef 90       	pop	r14
    1748:	ff 90       	pop	r15
    174a:	0f 91       	pop	r16
    174c:	1f 91       	pop	r17
    174e:	cf 91       	pop	r28
    1750:	df 91       	pop	r29
    1752:	99 27       	eor	r25, r25
    1754:	87 fd       	sbrc	r24, 7
    1756:	90 95       	com	r25
    1758:	08 95       	ret

0000175a <strnlen_P>:
    175a:	fc 01       	movw	r30, r24
    175c:	05 90       	lpm	r0, Z+
    175e:	61 50       	subi	r22, 0x01	; 1
    1760:	70 40       	sbci	r23, 0x00	; 0
    1762:	01 10       	cpse	r0, r1
    1764:	d8 f7       	brcc	.-10     	; 0x175c <strnlen_P+0x2>
    1766:	80 95       	com	r24
    1768:	90 95       	com	r25
    176a:	8e 0f       	add	r24, r30
    176c:	9f 1f       	adc	r25, r31
    176e:	08 95       	ret

00001770 <strnlen>:
    1770:	fc 01       	movw	r30, r24
    1772:	61 50       	subi	r22, 0x01	; 1
    1774:	70 40       	sbci	r23, 0x00	; 0
    1776:	01 90       	ld	r0, Z+
    1778:	01 10       	cpse	r0, r1
    177a:	d8 f7       	brcc	.-10     	; 0x1772 <strnlen+0x2>
    177c:	80 95       	com	r24
    177e:	90 95       	com	r25
    1780:	8e 0f       	add	r24, r30
    1782:	9f 1f       	adc	r25, r31
    1784:	08 95       	ret

00001786 <__itoa_ncheck>:
    1786:	bb 27       	eor	r27, r27
    1788:	4a 30       	cpi	r20, 0x0A	; 10
    178a:	31 f4       	brne	.+12     	; 0x1798 <__itoa_ncheck+0x12>
    178c:	99 23       	and	r25, r25
    178e:	22 f4       	brpl	.+8      	; 0x1798 <__itoa_ncheck+0x12>
    1790:	bd e2       	ldi	r27, 0x2D	; 45
    1792:	90 95       	com	r25
    1794:	81 95       	neg	r24
    1796:	9f 4f       	sbci	r25, 0xFF	; 255
    1798:	0c 94 cf 0b 	jmp	0x179e	; 0x179e <__utoa_common>

0000179c <__utoa_ncheck>:
    179c:	bb 27       	eor	r27, r27

0000179e <__utoa_common>:
    179e:	fb 01       	movw	r30, r22
    17a0:	55 27       	eor	r21, r21
    17a2:	aa 27       	eor	r26, r26
    17a4:	88 0f       	add	r24, r24
    17a6:	99 1f       	adc	r25, r25
    17a8:	aa 1f       	adc	r26, r26
    17aa:	a4 17       	cp	r26, r20
    17ac:	10 f0       	brcs	.+4      	; 0x17b2 <__utoa_common+0x14>
    17ae:	a4 1b       	sub	r26, r20
    17b0:	83 95       	inc	r24
    17b2:	50 51       	subi	r21, 0x10	; 16
    17b4:	b9 f7       	brne	.-18     	; 0x17a4 <__utoa_common+0x6>
    17b6:	a0 5d       	subi	r26, 0xD0	; 208
    17b8:	aa 33       	cpi	r26, 0x3A	; 58
    17ba:	08 f0       	brcs	.+2      	; 0x17be <__utoa_common+0x20>
    17bc:	a9 5d       	subi	r26, 0xD9	; 217
    17be:	a1 93       	st	Z+, r26
    17c0:	00 97       	sbiw	r24, 0x00	; 0
    17c2:	79 f7       	brne	.-34     	; 0x17a2 <__utoa_common+0x4>
    17c4:	b1 11       	cpse	r27, r1
    17c6:	b1 93       	st	Z+, r27
    17c8:	11 92       	st	Z+, r1
    17ca:	cb 01       	movw	r24, r22
    17cc:	0c 94 2f 0e 	jmp	0x1c5e	; 0x1c5e <strrev>

000017d0 <fputc>:
    17d0:	0f 93       	push	r16
    17d2:	1f 93       	push	r17
    17d4:	cf 93       	push	r28
    17d6:	df 93       	push	r29
    17d8:	fb 01       	movw	r30, r22
    17da:	23 81       	ldd	r18, Z+3	; 0x03
    17dc:	21 fd       	sbrc	r18, 1
    17de:	03 c0       	rjmp	.+6      	; 0x17e6 <fputc+0x16>
    17e0:	8f ef       	ldi	r24, 0xFF	; 255
    17e2:	9f ef       	ldi	r25, 0xFF	; 255
    17e4:	28 c0       	rjmp	.+80     	; 0x1836 <fputc+0x66>
    17e6:	22 ff       	sbrs	r18, 2
    17e8:	16 c0       	rjmp	.+44     	; 0x1816 <fputc+0x46>
    17ea:	46 81       	ldd	r20, Z+6	; 0x06
    17ec:	57 81       	ldd	r21, Z+7	; 0x07
    17ee:	24 81       	ldd	r18, Z+4	; 0x04
    17f0:	35 81       	ldd	r19, Z+5	; 0x05
    17f2:	42 17       	cp	r20, r18
    17f4:	53 07       	cpc	r21, r19
    17f6:	44 f4       	brge	.+16     	; 0x1808 <fputc+0x38>
    17f8:	a0 81       	ld	r26, Z
    17fa:	b1 81       	ldd	r27, Z+1	; 0x01
    17fc:	9d 01       	movw	r18, r26
    17fe:	2f 5f       	subi	r18, 0xFF	; 255
    1800:	3f 4f       	sbci	r19, 0xFF	; 255
    1802:	31 83       	std	Z+1, r19	; 0x01
    1804:	20 83       	st	Z, r18
    1806:	8c 93       	st	X, r24
    1808:	26 81       	ldd	r18, Z+6	; 0x06
    180a:	37 81       	ldd	r19, Z+7	; 0x07
    180c:	2f 5f       	subi	r18, 0xFF	; 255
    180e:	3f 4f       	sbci	r19, 0xFF	; 255
    1810:	37 83       	std	Z+7, r19	; 0x07
    1812:	26 83       	std	Z+6, r18	; 0x06
    1814:	10 c0       	rjmp	.+32     	; 0x1836 <fputc+0x66>
    1816:	eb 01       	movw	r28, r22
    1818:	09 2f       	mov	r16, r25
    181a:	18 2f       	mov	r17, r24
    181c:	00 84       	ldd	r0, Z+8	; 0x08
    181e:	f1 85       	ldd	r31, Z+9	; 0x09
    1820:	e0 2d       	mov	r30, r0
    1822:	09 95       	icall
    1824:	89 2b       	or	r24, r25
    1826:	e1 f6       	brne	.-72     	; 0x17e0 <fputc+0x10>
    1828:	8e 81       	ldd	r24, Y+6	; 0x06
    182a:	9f 81       	ldd	r25, Y+7	; 0x07
    182c:	01 96       	adiw	r24, 0x01	; 1
    182e:	9f 83       	std	Y+7, r25	; 0x07
    1830:	8e 83       	std	Y+6, r24	; 0x06
    1832:	81 2f       	mov	r24, r17
    1834:	90 2f       	mov	r25, r16
    1836:	df 91       	pop	r29
    1838:	cf 91       	pop	r28
    183a:	1f 91       	pop	r17
    183c:	0f 91       	pop	r16
    183e:	08 95       	ret

00001840 <sprintf>:
    1840:	ae e0       	ldi	r26, 0x0E	; 14
    1842:	b0 e0       	ldi	r27, 0x00	; 0
    1844:	e6 e2       	ldi	r30, 0x26	; 38
    1846:	fc e0       	ldi	r31, 0x0C	; 12
    1848:	0c 94 8c 0a 	jmp	0x1518	; 0x1518 <__prologue_saves__+0x1c>
    184c:	0d 89       	ldd	r16, Y+21	; 0x15
    184e:	1e 89       	ldd	r17, Y+22	; 0x16
    1850:	86 e0       	ldi	r24, 0x06	; 6
    1852:	8c 83       	std	Y+4, r24	; 0x04
    1854:	1a 83       	std	Y+2, r17	; 0x02
    1856:	09 83       	std	Y+1, r16	; 0x01
    1858:	8f ef       	ldi	r24, 0xFF	; 255
    185a:	9f e7       	ldi	r25, 0x7F	; 127
    185c:	9e 83       	std	Y+6, r25	; 0x06
    185e:	8d 83       	std	Y+5, r24	; 0x05
    1860:	ae 01       	movw	r20, r28
    1862:	47 5e       	subi	r20, 0xE7	; 231
    1864:	5f 4f       	sbci	r21, 0xFF	; 255
    1866:	6f 89       	ldd	r22, Y+23	; 0x17
    1868:	78 8d       	ldd	r23, Y+24	; 0x18
    186a:	ce 01       	movw	r24, r28
    186c:	01 96       	adiw	r24, 0x01	; 1
    186e:	0e 94 02 07 	call	0xe04	; 0xe04 <vfprintf>
    1872:	2f 81       	ldd	r18, Y+7	; 0x07
    1874:	38 85       	ldd	r19, Y+8	; 0x08
    1876:	f8 01       	movw	r30, r16
    1878:	e2 0f       	add	r30, r18
    187a:	f3 1f       	adc	r31, r19
    187c:	10 82       	st	Z, r1
    187e:	2e 96       	adiw	r28, 0x0e	; 14
    1880:	e4 e0       	ldi	r30, 0x04	; 4
    1882:	0c 94 a8 0a 	jmp	0x1550	; 0x1550 <__epilogue_restores__+0x1c>

00001886 <__ultoa_invert>:
    1886:	fa 01       	movw	r30, r20
    1888:	aa 27       	eor	r26, r26
    188a:	28 30       	cpi	r18, 0x08	; 8
    188c:	51 f1       	breq	.+84     	; 0x18e2 <__ultoa_invert+0x5c>
    188e:	20 31       	cpi	r18, 0x10	; 16
    1890:	81 f1       	breq	.+96     	; 0x18f2 <__ultoa_invert+0x6c>
    1892:	e8 94       	clt
    1894:	6f 93       	push	r22
    1896:	6e 7f       	andi	r22, 0xFE	; 254
    1898:	6e 5f       	subi	r22, 0xFE	; 254
    189a:	7f 4f       	sbci	r23, 0xFF	; 255
    189c:	8f 4f       	sbci	r24, 0xFF	; 255
    189e:	9f 4f       	sbci	r25, 0xFF	; 255
    18a0:	af 4f       	sbci	r26, 0xFF	; 255
    18a2:	b1 e0       	ldi	r27, 0x01	; 1
    18a4:	3e d0       	rcall	.+124    	; 0x1922 <__ultoa_invert+0x9c>
    18a6:	b4 e0       	ldi	r27, 0x04	; 4
    18a8:	3c d0       	rcall	.+120    	; 0x1922 <__ultoa_invert+0x9c>
    18aa:	67 0f       	add	r22, r23
    18ac:	78 1f       	adc	r23, r24
    18ae:	89 1f       	adc	r24, r25
    18b0:	9a 1f       	adc	r25, r26
    18b2:	a1 1d       	adc	r26, r1
    18b4:	68 0f       	add	r22, r24
    18b6:	79 1f       	adc	r23, r25
    18b8:	8a 1f       	adc	r24, r26
    18ba:	91 1d       	adc	r25, r1
    18bc:	a1 1d       	adc	r26, r1
    18be:	6a 0f       	add	r22, r26
    18c0:	71 1d       	adc	r23, r1
    18c2:	81 1d       	adc	r24, r1
    18c4:	91 1d       	adc	r25, r1
    18c6:	a1 1d       	adc	r26, r1
    18c8:	20 d0       	rcall	.+64     	; 0x190a <__ultoa_invert+0x84>
    18ca:	09 f4       	brne	.+2      	; 0x18ce <__ultoa_invert+0x48>
    18cc:	68 94       	set
    18ce:	3f 91       	pop	r19
    18d0:	2a e0       	ldi	r18, 0x0A	; 10
    18d2:	26 9f       	mul	r18, r22
    18d4:	11 24       	eor	r1, r1
    18d6:	30 19       	sub	r19, r0
    18d8:	30 5d       	subi	r19, 0xD0	; 208
    18da:	31 93       	st	Z+, r19
    18dc:	de f6       	brtc	.-74     	; 0x1894 <__ultoa_invert+0xe>
    18de:	cf 01       	movw	r24, r30
    18e0:	08 95       	ret
    18e2:	46 2f       	mov	r20, r22
    18e4:	47 70       	andi	r20, 0x07	; 7
    18e6:	40 5d       	subi	r20, 0xD0	; 208
    18e8:	41 93       	st	Z+, r20
    18ea:	b3 e0       	ldi	r27, 0x03	; 3
    18ec:	0f d0       	rcall	.+30     	; 0x190c <__ultoa_invert+0x86>
    18ee:	c9 f7       	brne	.-14     	; 0x18e2 <__ultoa_invert+0x5c>
    18f0:	f6 cf       	rjmp	.-20     	; 0x18de <__ultoa_invert+0x58>
    18f2:	46 2f       	mov	r20, r22
    18f4:	4f 70       	andi	r20, 0x0F	; 15
    18f6:	40 5d       	subi	r20, 0xD0	; 208
    18f8:	4a 33       	cpi	r20, 0x3A	; 58
    18fa:	18 f0       	brcs	.+6      	; 0x1902 <__ultoa_invert+0x7c>
    18fc:	49 5d       	subi	r20, 0xD9	; 217
    18fe:	31 fd       	sbrc	r19, 1
    1900:	40 52       	subi	r20, 0x20	; 32
    1902:	41 93       	st	Z+, r20
    1904:	02 d0       	rcall	.+4      	; 0x190a <__ultoa_invert+0x84>
    1906:	a9 f7       	brne	.-22     	; 0x18f2 <__ultoa_invert+0x6c>
    1908:	ea cf       	rjmp	.-44     	; 0x18de <__ultoa_invert+0x58>
    190a:	b4 e0       	ldi	r27, 0x04	; 4
    190c:	a6 95       	lsr	r26
    190e:	97 95       	ror	r25
    1910:	87 95       	ror	r24
    1912:	77 95       	ror	r23
    1914:	67 95       	ror	r22
    1916:	ba 95       	dec	r27
    1918:	c9 f7       	brne	.-14     	; 0x190c <__ultoa_invert+0x86>
    191a:	00 97       	sbiw	r24, 0x00	; 0
    191c:	61 05       	cpc	r22, r1
    191e:	71 05       	cpc	r23, r1
    1920:	08 95       	ret
    1922:	9b 01       	movw	r18, r22
    1924:	ac 01       	movw	r20, r24
    1926:	0a 2e       	mov	r0, r26
    1928:	06 94       	lsr	r0
    192a:	57 95       	ror	r21
    192c:	47 95       	ror	r20
    192e:	37 95       	ror	r19
    1930:	27 95       	ror	r18
    1932:	ba 95       	dec	r27
    1934:	c9 f7       	brne	.-14     	; 0x1928 <__ultoa_invert+0xa2>
    1936:	62 0f       	add	r22, r18
    1938:	73 1f       	adc	r23, r19
    193a:	84 1f       	adc	r24, r20
    193c:	95 1f       	adc	r25, r21
    193e:	a0 1d       	adc	r26, r0
    1940:	08 95       	ret

00001942 <dtoa_prf>:
    1942:	4f 92       	push	r4
    1944:	5f 92       	push	r5
    1946:	6f 92       	push	r6
    1948:	7f 92       	push	r7
    194a:	9f 92       	push	r9
    194c:	af 92       	push	r10
    194e:	bf 92       	push	r11
    1950:	cf 92       	push	r12
    1952:	df 92       	push	r13
    1954:	ef 92       	push	r14
    1956:	ff 92       	push	r15
    1958:	0f 93       	push	r16
    195a:	1f 93       	push	r17
    195c:	cf 93       	push	r28
    195e:	df 93       	push	r29
    1960:	cd b7       	in	r28, 0x3d	; 61
    1962:	de b7       	in	r29, 0x3e	; 62
    1964:	29 97       	sbiw	r28, 0x09	; 9
    1966:	0f b6       	in	r0, 0x3f	; 63
    1968:	f8 94       	cli
    196a:	de bf       	out	0x3e, r29	; 62
    196c:	0f be       	out	0x3f, r0	; 63
    196e:	cd bf       	out	0x3d, r28	; 61
    1970:	6a 01       	movw	r12, r20
    1972:	12 2f       	mov	r17, r18
    1974:	b0 2e       	mov	r11, r16
    1976:	2b e3       	ldi	r18, 0x3B	; 59
    1978:	20 17       	cp	r18, r16
    197a:	20 f0       	brcs	.+8      	; 0x1984 <dtoa_prf+0x42>
    197c:	ff 24       	eor	r15, r15
    197e:	f3 94       	inc	r15
    1980:	f0 0e       	add	r15, r16
    1982:	02 c0       	rjmp	.+4      	; 0x1988 <dtoa_prf+0x46>
    1984:	bc e3       	ldi	r27, 0x3C	; 60
    1986:	fb 2e       	mov	r15, r27
    1988:	0f 2d       	mov	r16, r15
    198a:	27 e0       	ldi	r18, 0x07	; 7
    198c:	ae 01       	movw	r20, r28
    198e:	4f 5f       	subi	r20, 0xFF	; 255
    1990:	5f 4f       	sbci	r21, 0xFF	; 255
    1992:	0e 94 d5 0a 	call	0x15aa	; 0x15aa <__ftoa_engine>
    1996:	ac 01       	movw	r20, r24
    1998:	89 81       	ldd	r24, Y+1	; 0x01
    199a:	98 2f       	mov	r25, r24
    199c:	99 70       	andi	r25, 0x09	; 9
    199e:	91 30       	cpi	r25, 0x01	; 1
    19a0:	31 f0       	breq	.+12     	; 0x19ae <dtoa_prf+0x6c>
    19a2:	e1 fc       	sbrc	r14, 1
    19a4:	06 c0       	rjmp	.+12     	; 0x19b2 <dtoa_prf+0x70>
    19a6:	e0 fe       	sbrs	r14, 0
    19a8:	06 c0       	rjmp	.+12     	; 0x19b6 <dtoa_prf+0x74>
    19aa:	90 e2       	ldi	r25, 0x20	; 32
    19ac:	05 c0       	rjmp	.+10     	; 0x19b8 <dtoa_prf+0x76>
    19ae:	9d e2       	ldi	r25, 0x2D	; 45
    19b0:	03 c0       	rjmp	.+6      	; 0x19b8 <dtoa_prf+0x76>
    19b2:	9b e2       	ldi	r25, 0x2B	; 43
    19b4:	01 c0       	rjmp	.+2      	; 0x19b8 <dtoa_prf+0x76>
    19b6:	90 e0       	ldi	r25, 0x00	; 0
    19b8:	ee 2d       	mov	r30, r14
    19ba:	e0 71       	andi	r30, 0x10	; 16
    19bc:	83 ff       	sbrs	r24, 3
    19be:	3c c0       	rjmp	.+120    	; 0x1a38 <dtoa_prf+0xf6>
    19c0:	91 11       	cpse	r25, r1
    19c2:	02 c0       	rjmp	.+4      	; 0x19c8 <dtoa_prf+0x86>
    19c4:	83 e0       	ldi	r24, 0x03	; 3
    19c6:	01 c0       	rjmp	.+2      	; 0x19ca <dtoa_prf+0x88>
    19c8:	84 e0       	ldi	r24, 0x04	; 4
    19ca:	81 17       	cp	r24, r17
    19cc:	18 f4       	brcc	.+6      	; 0x19d4 <dtoa_prf+0x92>
    19ce:	21 2f       	mov	r18, r17
    19d0:	28 1b       	sub	r18, r24
    19d2:	01 c0       	rjmp	.+2      	; 0x19d6 <dtoa_prf+0x94>
    19d4:	20 e0       	ldi	r18, 0x00	; 0
    19d6:	e1 11       	cpse	r30, r1
    19d8:	0b c0       	rjmp	.+22     	; 0x19f0 <dtoa_prf+0xae>
    19da:	f6 01       	movw	r30, r12
    19dc:	82 2f       	mov	r24, r18
    19de:	30 e2       	ldi	r19, 0x20	; 32
    19e0:	88 23       	and	r24, r24
    19e2:	19 f0       	breq	.+6      	; 0x19ea <dtoa_prf+0xa8>
    19e4:	31 93       	st	Z+, r19
    19e6:	81 50       	subi	r24, 0x01	; 1
    19e8:	fb cf       	rjmp	.-10     	; 0x19e0 <dtoa_prf+0x9e>
    19ea:	c2 0e       	add	r12, r18
    19ec:	d1 1c       	adc	r13, r1
    19ee:	20 e0       	ldi	r18, 0x00	; 0
    19f0:	99 23       	and	r25, r25
    19f2:	29 f0       	breq	.+10     	; 0x19fe <dtoa_prf+0xbc>
    19f4:	d6 01       	movw	r26, r12
    19f6:	9c 93       	st	X, r25
    19f8:	f6 01       	movw	r30, r12
    19fa:	31 96       	adiw	r30, 0x01	; 1
    19fc:	6f 01       	movw	r12, r30
    19fe:	c6 01       	movw	r24, r12
    1a00:	03 96       	adiw	r24, 0x03	; 3
    1a02:	e2 fe       	sbrs	r14, 2
    1a04:	0a c0       	rjmp	.+20     	; 0x1a1a <dtoa_prf+0xd8>
    1a06:	3e e4       	ldi	r19, 0x4E	; 78
    1a08:	d6 01       	movw	r26, r12
    1a0a:	3c 93       	st	X, r19
    1a0c:	41 e4       	ldi	r20, 0x41	; 65
    1a0e:	11 96       	adiw	r26, 0x01	; 1
    1a10:	4c 93       	st	X, r20
    1a12:	11 97       	sbiw	r26, 0x01	; 1
    1a14:	12 96       	adiw	r26, 0x02	; 2
    1a16:	3c 93       	st	X, r19
    1a18:	06 c0       	rjmp	.+12     	; 0x1a26 <dtoa_prf+0xe4>
    1a1a:	3e e6       	ldi	r19, 0x6E	; 110
    1a1c:	f6 01       	movw	r30, r12
    1a1e:	30 83       	st	Z, r19
    1a20:	41 e6       	ldi	r20, 0x61	; 97
    1a22:	41 83       	std	Z+1, r20	; 0x01
    1a24:	32 83       	std	Z+2, r19	; 0x02
    1a26:	fc 01       	movw	r30, r24
    1a28:	32 2f       	mov	r19, r18
    1a2a:	40 e2       	ldi	r20, 0x20	; 32
    1a2c:	33 23       	and	r19, r19
    1a2e:	09 f4       	brne	.+2      	; 0x1a32 <dtoa_prf+0xf0>
    1a30:	42 c0       	rjmp	.+132    	; 0x1ab6 <dtoa_prf+0x174>
    1a32:	41 93       	st	Z+, r20
    1a34:	31 50       	subi	r19, 0x01	; 1
    1a36:	fa cf       	rjmp	.-12     	; 0x1a2c <dtoa_prf+0xea>
    1a38:	82 ff       	sbrs	r24, 2
    1a3a:	44 c0       	rjmp	.+136    	; 0x1ac4 <dtoa_prf+0x182>
    1a3c:	91 11       	cpse	r25, r1
    1a3e:	02 c0       	rjmp	.+4      	; 0x1a44 <dtoa_prf+0x102>
    1a40:	83 e0       	ldi	r24, 0x03	; 3
    1a42:	01 c0       	rjmp	.+2      	; 0x1a46 <dtoa_prf+0x104>
    1a44:	84 e0       	ldi	r24, 0x04	; 4
    1a46:	81 17       	cp	r24, r17
    1a48:	18 f4       	brcc	.+6      	; 0x1a50 <dtoa_prf+0x10e>
    1a4a:	21 2f       	mov	r18, r17
    1a4c:	28 1b       	sub	r18, r24
    1a4e:	01 c0       	rjmp	.+2      	; 0x1a52 <dtoa_prf+0x110>
    1a50:	20 e0       	ldi	r18, 0x00	; 0
    1a52:	e1 11       	cpse	r30, r1
    1a54:	0b c0       	rjmp	.+22     	; 0x1a6c <dtoa_prf+0x12a>
    1a56:	f6 01       	movw	r30, r12
    1a58:	82 2f       	mov	r24, r18
    1a5a:	30 e2       	ldi	r19, 0x20	; 32
    1a5c:	88 23       	and	r24, r24
    1a5e:	19 f0       	breq	.+6      	; 0x1a66 <dtoa_prf+0x124>
    1a60:	31 93       	st	Z+, r19
    1a62:	81 50       	subi	r24, 0x01	; 1
    1a64:	fb cf       	rjmp	.-10     	; 0x1a5c <dtoa_prf+0x11a>
    1a66:	c2 0e       	add	r12, r18
    1a68:	d1 1c       	adc	r13, r1
    1a6a:	20 e0       	ldi	r18, 0x00	; 0
    1a6c:	99 23       	and	r25, r25
    1a6e:	29 f0       	breq	.+10     	; 0x1a7a <dtoa_prf+0x138>
    1a70:	d6 01       	movw	r26, r12
    1a72:	9c 93       	st	X, r25
    1a74:	f6 01       	movw	r30, r12
    1a76:	31 96       	adiw	r30, 0x01	; 1
    1a78:	6f 01       	movw	r12, r30
    1a7a:	c6 01       	movw	r24, r12
    1a7c:	03 96       	adiw	r24, 0x03	; 3
    1a7e:	e2 fe       	sbrs	r14, 2
    1a80:	0b c0       	rjmp	.+22     	; 0x1a98 <dtoa_prf+0x156>
    1a82:	39 e4       	ldi	r19, 0x49	; 73
    1a84:	d6 01       	movw	r26, r12
    1a86:	3c 93       	st	X, r19
    1a88:	3e e4       	ldi	r19, 0x4E	; 78
    1a8a:	11 96       	adiw	r26, 0x01	; 1
    1a8c:	3c 93       	st	X, r19
    1a8e:	11 97       	sbiw	r26, 0x01	; 1
    1a90:	36 e4       	ldi	r19, 0x46	; 70
    1a92:	12 96       	adiw	r26, 0x02	; 2
    1a94:	3c 93       	st	X, r19
    1a96:	07 c0       	rjmp	.+14     	; 0x1aa6 <dtoa_prf+0x164>
    1a98:	39 e6       	ldi	r19, 0x69	; 105
    1a9a:	f6 01       	movw	r30, r12
    1a9c:	30 83       	st	Z, r19
    1a9e:	3e e6       	ldi	r19, 0x6E	; 110
    1aa0:	31 83       	std	Z+1, r19	; 0x01
    1aa2:	36 e6       	ldi	r19, 0x66	; 102
    1aa4:	32 83       	std	Z+2, r19	; 0x02
    1aa6:	fc 01       	movw	r30, r24
    1aa8:	32 2f       	mov	r19, r18
    1aaa:	40 e2       	ldi	r20, 0x20	; 32
    1aac:	33 23       	and	r19, r19
    1aae:	19 f0       	breq	.+6      	; 0x1ab6 <dtoa_prf+0x174>
    1ab0:	41 93       	st	Z+, r20
    1ab2:	31 50       	subi	r19, 0x01	; 1
    1ab4:	fb cf       	rjmp	.-10     	; 0x1aac <dtoa_prf+0x16a>
    1ab6:	fc 01       	movw	r30, r24
    1ab8:	e2 0f       	add	r30, r18
    1aba:	f1 1d       	adc	r31, r1
    1abc:	10 82       	st	Z, r1
    1abe:	8e ef       	ldi	r24, 0xFE	; 254
    1ac0:	9f ef       	ldi	r25, 0xFF	; 255
    1ac2:	b7 c0       	rjmp	.+366    	; 0x1c32 <dtoa_prf+0x2f0>
    1ac4:	f1 e0       	ldi	r31, 0x01	; 1
    1ac6:	91 11       	cpse	r25, r1
    1ac8:	01 c0       	rjmp	.+2      	; 0x1acc <dtoa_prf+0x18a>
    1aca:	f0 e0       	ldi	r31, 0x00	; 0
    1acc:	6f 2f       	mov	r22, r31
    1ace:	70 e0       	ldi	r23, 0x00	; 0
    1ad0:	14 16       	cp	r1, r20
    1ad2:	15 06       	cpc	r1, r21
    1ad4:	24 f4       	brge	.+8      	; 0x1ade <dtoa_prf+0x19c>
    1ad6:	9a 01       	movw	r18, r20
    1ad8:	2f 5f       	subi	r18, 0xFF	; 255
    1ada:	3f 4f       	sbci	r19, 0xFF	; 255
    1adc:	02 c0       	rjmp	.+4      	; 0x1ae2 <dtoa_prf+0x1a0>
    1ade:	21 e0       	ldi	r18, 0x01	; 1
    1ae0:	30 e0       	ldi	r19, 0x00	; 0
    1ae2:	26 0f       	add	r18, r22
    1ae4:	37 1f       	adc	r19, r23
    1ae6:	bb 20       	and	r11, r11
    1ae8:	29 f0       	breq	.+10     	; 0x1af4 <dtoa_prf+0x1b2>
    1aea:	6b 2d       	mov	r22, r11
    1aec:	70 e0       	ldi	r23, 0x00	; 0
    1aee:	6f 5f       	subi	r22, 0xFF	; 255
    1af0:	7f 4f       	sbci	r23, 0xFF	; 255
    1af2:	02 c0       	rjmp	.+4      	; 0x1af8 <dtoa_prf+0x1b6>
    1af4:	60 e0       	ldi	r22, 0x00	; 0
    1af6:	70 e0       	ldi	r23, 0x00	; 0
    1af8:	26 0f       	add	r18, r22
    1afa:	37 1f       	adc	r19, r23
    1afc:	61 2f       	mov	r22, r17
    1afe:	70 e0       	ldi	r23, 0x00	; 0
    1b00:	26 17       	cp	r18, r22
    1b02:	37 07       	cpc	r19, r23
    1b04:	1c f4       	brge	.+6      	; 0x1b0c <dtoa_prf+0x1ca>
    1b06:	12 1b       	sub	r17, r18
    1b08:	21 2f       	mov	r18, r17
    1b0a:	01 c0       	rjmp	.+2      	; 0x1b0e <dtoa_prf+0x1cc>
    1b0c:	20 e0       	ldi	r18, 0x00	; 0
    1b0e:	3e 2d       	mov	r19, r14
    1b10:	38 71       	andi	r19, 0x18	; 24
    1b12:	59 f4       	brne	.+22     	; 0x1b2a <dtoa_prf+0x1e8>
    1b14:	d6 01       	movw	r26, r12
    1b16:	32 2f       	mov	r19, r18
    1b18:	60 e2       	ldi	r22, 0x20	; 32
    1b1a:	33 23       	and	r19, r19
    1b1c:	19 f0       	breq	.+6      	; 0x1b24 <dtoa_prf+0x1e2>
    1b1e:	6d 93       	st	X+, r22
    1b20:	31 50       	subi	r19, 0x01	; 1
    1b22:	fb cf       	rjmp	.-10     	; 0x1b1a <dtoa_prf+0x1d8>
    1b24:	c2 0e       	add	r12, r18
    1b26:	d1 1c       	adc	r13, r1
    1b28:	20 e0       	ldi	r18, 0x00	; 0
    1b2a:	ff 23       	and	r31, r31
    1b2c:	31 f0       	breq	.+12     	; 0x1b3a <dtoa_prf+0x1f8>
    1b2e:	d6 01       	movw	r26, r12
    1b30:	9c 93       	st	X, r25
    1b32:	b6 01       	movw	r22, r12
    1b34:	6f 5f       	subi	r22, 0xFF	; 255
    1b36:	7f 4f       	sbci	r23, 0xFF	; 255
    1b38:	6b 01       	movw	r12, r22
    1b3a:	e1 11       	cpse	r30, r1
    1b3c:	0b c0       	rjmp	.+22     	; 0x1b54 <dtoa_prf+0x212>
    1b3e:	f6 01       	movw	r30, r12
    1b40:	92 2f       	mov	r25, r18
    1b42:	30 e3       	ldi	r19, 0x30	; 48
    1b44:	99 23       	and	r25, r25
    1b46:	19 f0       	breq	.+6      	; 0x1b4e <dtoa_prf+0x20c>
    1b48:	31 93       	st	Z+, r19
    1b4a:	91 50       	subi	r25, 0x01	; 1
    1b4c:	fb cf       	rjmp	.-10     	; 0x1b44 <dtoa_prf+0x202>
    1b4e:	c2 0e       	add	r12, r18
    1b50:	d1 1c       	adc	r13, r1
    1b52:	20 e0       	ldi	r18, 0x00	; 0
    1b54:	9f 2d       	mov	r25, r15
    1b56:	94 0f       	add	r25, r20
    1b58:	3a 81       	ldd	r19, Y+2	; 0x02
    1b5a:	78 2f       	mov	r23, r24
    1b5c:	70 71       	andi	r23, 0x10	; 16
    1b5e:	a7 2e       	mov	r10, r23
    1b60:	84 ff       	sbrs	r24, 4
    1b62:	03 c0       	rjmp	.+6      	; 0x1b6a <dtoa_prf+0x228>
    1b64:	31 33       	cpi	r19, 0x31	; 49
    1b66:	09 f4       	brne	.+2      	; 0x1b6a <dtoa_prf+0x228>
    1b68:	91 50       	subi	r25, 0x01	; 1
    1b6a:	19 16       	cp	r1, r25
    1b6c:	24 f4       	brge	.+8      	; 0x1b76 <dtoa_prf+0x234>
    1b6e:	99 30       	cpi	r25, 0x09	; 9
    1b70:	18 f0       	brcs	.+6      	; 0x1b78 <dtoa_prf+0x236>
    1b72:	98 e0       	ldi	r25, 0x08	; 8
    1b74:	01 c0       	rjmp	.+2      	; 0x1b78 <dtoa_prf+0x236>
    1b76:	91 e0       	ldi	r25, 0x01	; 1
    1b78:	e4 2f       	mov	r30, r20
    1b7a:	85 2f       	mov	r24, r21
    1b7c:	57 ff       	sbrs	r21, 7
    1b7e:	02 c0       	rjmp	.+4      	; 0x1b84 <dtoa_prf+0x242>
    1b80:	e0 e0       	ldi	r30, 0x00	; 0
    1b82:	80 e0       	ldi	r24, 0x00	; 0
    1b84:	6e 2f       	mov	r22, r30
    1b86:	78 2f       	mov	r23, r24
    1b88:	e0 e0       	ldi	r30, 0x00	; 0
    1b8a:	f0 e0       	ldi	r31, 0x00	; 0
    1b8c:	ae e2       	ldi	r26, 0x2E	; 46
    1b8e:	9a 2e       	mov	r9, r26
    1b90:	3a 01       	movw	r6, r20
    1b92:	69 1a       	sub	r6, r25
    1b94:	71 08       	sbc	r7, r1
    1b96:	2a 01       	movw	r4, r20
    1b98:	46 1a       	sub	r4, r22
    1b9a:	57 0a       	sbc	r5, r23
    1b9c:	0b 2d       	mov	r16, r11
    1b9e:	10 e0       	ldi	r17, 0x00	; 0
    1ba0:	11 95       	neg	r17
    1ba2:	01 95       	neg	r16
    1ba4:	11 09       	sbc	r17, r1
    1ba6:	6f 3f       	cpi	r22, 0xFF	; 255
    1ba8:	8f ef       	ldi	r24, 0xFF	; 255
    1baa:	78 07       	cpc	r23, r24
    1bac:	29 f4       	brne	.+10     	; 0x1bb8 <dtoa_prf+0x276>
    1bae:	d6 01       	movw	r26, r12
    1bb0:	9c 92       	st	X, r9
    1bb2:	c6 01       	movw	r24, r12
    1bb4:	01 96       	adiw	r24, 0x01	; 1
    1bb6:	6c 01       	movw	r12, r24
    1bb8:	46 17       	cp	r20, r22
    1bba:	57 07       	cpc	r21, r23
    1bbc:	84 f0       	brlt	.+32     	; 0x1bde <dtoa_prf+0x29c>
    1bbe:	66 16       	cp	r6, r22
    1bc0:	77 06       	cpc	r7, r23
    1bc2:	6c f4       	brge	.+26     	; 0x1bde <dtoa_prf+0x29c>
    1bc4:	7f 01       	movw	r14, r30
    1bc6:	e4 0c       	add	r14, r4
    1bc8:	f5 1c       	adc	r15, r5
    1bca:	a1 e0       	ldi	r26, 0x01	; 1
    1bcc:	b0 e0       	ldi	r27, 0x00	; 0
    1bce:	ac 0f       	add	r26, r28
    1bd0:	bd 1f       	adc	r27, r29
    1bd2:	ea 0e       	add	r14, r26
    1bd4:	fb 1e       	adc	r15, r27
    1bd6:	d7 01       	movw	r26, r14
    1bd8:	11 96       	adiw	r26, 0x01	; 1
    1bda:	bc 90       	ld	r11, X
    1bdc:	02 c0       	rjmp	.+4      	; 0x1be2 <dtoa_prf+0x2a0>
    1bde:	90 e3       	ldi	r25, 0x30	; 48
    1be0:	b9 2e       	mov	r11, r25
    1be2:	61 50       	subi	r22, 0x01	; 1
    1be4:	71 09       	sbc	r23, r1
    1be6:	31 96       	adiw	r30, 0x01	; 1
    1be8:	c6 01       	movw	r24, r12
    1bea:	01 96       	adiw	r24, 0x01	; 1
    1bec:	7c 01       	movw	r14, r24
    1bee:	60 17       	cp	r22, r16
    1bf0:	71 07       	cpc	r23, r17
    1bf2:	24 f0       	brlt	.+8      	; 0x1bfc <dtoa_prf+0x2ba>
    1bf4:	d6 01       	movw	r26, r12
    1bf6:	bc 92       	st	X, r11
    1bf8:	6c 01       	movw	r12, r24
    1bfa:	d5 cf       	rjmp	.-86     	; 0x1ba6 <dtoa_prf+0x264>
    1bfc:	64 17       	cp	r22, r20
    1bfe:	75 07       	cpc	r23, r21
    1c00:	41 f4       	brne	.+16     	; 0x1c12 <dtoa_prf+0x2d0>
    1c02:	36 33       	cpi	r19, 0x36	; 54
    1c04:	20 f4       	brcc	.+8      	; 0x1c0e <dtoa_prf+0x2cc>
    1c06:	35 33       	cpi	r19, 0x35	; 53
    1c08:	21 f4       	brne	.+8      	; 0x1c12 <dtoa_prf+0x2d0>
    1c0a:	a1 10       	cpse	r10, r1
    1c0c:	02 c0       	rjmp	.+4      	; 0x1c12 <dtoa_prf+0x2d0>
    1c0e:	81 e3       	ldi	r24, 0x31	; 49
    1c10:	b8 2e       	mov	r11, r24
    1c12:	f6 01       	movw	r30, r12
    1c14:	b0 82       	st	Z, r11
    1c16:	f7 01       	movw	r30, r14
    1c18:	82 2f       	mov	r24, r18
    1c1a:	90 e2       	ldi	r25, 0x20	; 32
    1c1c:	88 23       	and	r24, r24
    1c1e:	19 f0       	breq	.+6      	; 0x1c26 <dtoa_prf+0x2e4>
    1c20:	91 93       	st	Z+, r25
    1c22:	81 50       	subi	r24, 0x01	; 1
    1c24:	fb cf       	rjmp	.-10     	; 0x1c1c <dtoa_prf+0x2da>
    1c26:	f7 01       	movw	r30, r14
    1c28:	e2 0f       	add	r30, r18
    1c2a:	f1 1d       	adc	r31, r1
    1c2c:	10 82       	st	Z, r1
    1c2e:	80 e0       	ldi	r24, 0x00	; 0
    1c30:	90 e0       	ldi	r25, 0x00	; 0
    1c32:	29 96       	adiw	r28, 0x09	; 9
    1c34:	0f b6       	in	r0, 0x3f	; 63
    1c36:	f8 94       	cli
    1c38:	de bf       	out	0x3e, r29	; 62
    1c3a:	0f be       	out	0x3f, r0	; 63
    1c3c:	cd bf       	out	0x3d, r28	; 61
    1c3e:	df 91       	pop	r29
    1c40:	cf 91       	pop	r28
    1c42:	1f 91       	pop	r17
    1c44:	0f 91       	pop	r16
    1c46:	ff 90       	pop	r15
    1c48:	ef 90       	pop	r14
    1c4a:	df 90       	pop	r13
    1c4c:	cf 90       	pop	r12
    1c4e:	bf 90       	pop	r11
    1c50:	af 90       	pop	r10
    1c52:	9f 90       	pop	r9
    1c54:	7f 90       	pop	r7
    1c56:	6f 90       	pop	r6
    1c58:	5f 90       	pop	r5
    1c5a:	4f 90       	pop	r4
    1c5c:	08 95       	ret

00001c5e <strrev>:
    1c5e:	dc 01       	movw	r26, r24
    1c60:	fc 01       	movw	r30, r24
    1c62:	67 2f       	mov	r22, r23
    1c64:	71 91       	ld	r23, Z+
    1c66:	77 23       	and	r23, r23
    1c68:	e1 f7       	brne	.-8      	; 0x1c62 <strrev+0x4>
    1c6a:	32 97       	sbiw	r30, 0x02	; 2
    1c6c:	04 c0       	rjmp	.+8      	; 0x1c76 <strrev+0x18>
    1c6e:	7c 91       	ld	r23, X
    1c70:	6d 93       	st	X+, r22
    1c72:	70 83       	st	Z, r23
    1c74:	62 91       	ld	r22, -Z
    1c76:	ae 17       	cp	r26, r30
    1c78:	bf 07       	cpc	r27, r31
    1c7a:	c8 f3       	brcs	.-14     	; 0x1c6e <strrev+0x10>
    1c7c:	08 95       	ret

00001c7e <_exit>:
    1c7e:	f8 94       	cli

00001c80 <__stop_program>:
    1c80:	ff cf       	rjmp	.-2      	; 0x1c80 <__stop_program>
